(dp1
(((S'p'
I-3
I0
t(S'f'
I0
I0
t(S'p'
I-2
I2
t(S't'
I1
I2
t(S'p'
I-1
I0
t(S'f'
I1
I0
ttp2
I3
tp3
F-375
s(((S'f'
I1
I-2
t(S'f'
I0
I-2
t(S'p'
I-1
I-2
t(S'p'
I-3
I-2
t(S'p'
I-2
I0
t(S't'
I1
I0
ttp4
I0
tp5
F1790.1854244903661
s(((S'p'
I3
I0
t(S'f'
I4
I0
t(S'p'
I1
I0
t(S'f'
I5
I0
t(S't'
I5
I2
t(S'p'
I2
I2
ttp6
I1
tp7
F-2.6490810937500004
s(((S'p'
I2
I-2
t(S'f'
I4
I-2
t(S't'
I4
I0
t(S'p'
I1
I0
t(S'f'
I3
I-2
t(S'p'
I0
I-2
ttp8
I2
tp9
F-2.6553318749999999
s((S't'
I0
I0
tp10
I0
tp11
I0
s(g6
I0
tp12
F-2.6991857812500002
s(((S'f'
I2
I-2
t(S'f'
I1
I-2
t(S'p'
I-1
I0
t(S'p'
I-2
I-2
t(S'p'
I0
I-2
t(S't'
I2
I0
ttp13
I2
tp14
F-2187.5
s(((S't'
I3
I2
t(S'p'
I0
I2
t(S'f'
I3
I0
t(S'p'
I1
I0
t(S'f'
I2
I0
t(S'p'
I-1
I0
ttp15
I2
tp16
F-1250
s(((S'f'
I5
I-2
t(S'p'
I3
I-2
t(S't'
I5
I0
t(S'p'
I2
I0
t(S'f'
I4
I-2
t(S'p'
I1
I-2
ttp17
I2
tp18
F-2.6490810937500004
s(((S'p'
I-1
I1
t(S'f'
I2
I-1
t(S'f'
I1
I-1
t(S'p'
I-2
I-1
t(S'p'
I0
I-1
t(S't'
I2
I1
ttp19
I1
tp20
F-1875
s(((S'f'
I5
I-1
t(S't'
I5
I1
t(S'p'
I3
I-1
t(S'f'
I4
I-1
t(S'p'
I2
I1
t(S'p'
I1
I-1
ttp21
I0
tp22
F-2.8551129687500003
s(g21
I2
tp23
F-2.5499812500000001
s(((S'f'
I0
I0
t(S'p'
I-4
I0
t(S'f'
I-1
I0
t(S'p'
I-3
I2
t(S't'
I0
I2
t(S'p'
I-2
I0
ttp24
I1
tp25
I0
s(g2
I0
tp26
I0
s(g4
I1
tp27
F-125
s(((S'f'
I2
I-1
t(S't'
I3
I1
t(S'p'
I1
I-1
t(S'f'
I3
I-1
t(S'p'
I-1
I-1
t(S'p'
I0
I1
ttp28
I0
tp29
F-2490.234375
s(g8
I1
tp30
F-2.3836132812499997
s(g10
I1
tp31
I0
s(g6
I3
tp32
F-1250
s(g13
I3
tp33
F1799
s(((S'p'
I2
I-1
t(S'p'
I1
I1
t(S't'
I4
I1
t(S'f'
I4
I-1
t(S'f'
I3
I-1
t(S'p'
I0
I-1
ttp34
I3
tp35
F1267.4992101715898
s(((S'f'
I1
I-1
t(S'f'
I0
I-1
t(S'p'
I-1
I-1
t(S'p'
I-3
I-1
t(S't'
I1
I1
t(S'p'
I-2
I1
ttp36
I2
tp37
F-0.83750000000000002
s(g15
I3
tp38
F-1875
s(g17
I1
tp39
F-2.9570337499999999
s(g36
I3
tp40
F712.5
s(g36
I1
tp41
F-375
s(((S'f'
I-1
I-1
t(S'p'
I-4
I-1
t(S'f'
I0
I-1
t(S't'
I0
I1
t(S'p'
I-2
I-1
t(S'p'
I-3
I1
ttp42
I2
tp43
I0
s(g24
I2
tp44
I0
s(g2
I1
tp45
F-375
s(g19
I2
tp46
F646.79763672337538
s(g28
I1
tp47
F1082.8011839528085
s(g8
I0
tp48
F-2.6490810937500004
s(g10
I2
tp49
I0
s(g6
I2
tp50
F-2.6490810937500004
s(g34
I2
tp51
F-2.8670115703125001
s(g4
I2
tp52
F1516.8880600243474
s(g15
I0
tp53
F1287.7453889054773
s(g17
I0
tp54
F-2.7894896093750003
s(g13
I0
tp55
F1516.9078125000001
s(g24
I3
tp56
F-375
s(g19
I3
tp57
F151.5625
s(g28
I2
tp58
F972.91127702861468
s(g42
I0
tp59
F1750
s(g10
I3
tp60
I0
s(g34
I1
tp61
F-2187.5
s(g2
I2
tp62
I0
s(g4
I3
tp63
F2000
s(g42
I3
tp64
I0
s(g15
I1
tp65
F-2.2621906250000001
s(g8
I3
tp66
F-1250
s(g21
I1
tp67
F-2.6428310937499999
s(g13
I1
tp68
F1273.2373637818173
s(g42
I1
tp69
I0
s(g17
I3
tp70
F-2.6364248437500004
s(g19
I0
tp71
F1618.0999999999999
s(g28
I3
tp72
F1455.29
s(g21
I3
tp73
F438.55666872710015
s(g24
I0
tp74
F-125
s(g34
I0
tp75
F-2.325244921875
s(g36
I0
tp76
F899.25
s.