(dp1
(((S'p'
I-3
I0
t(S'f'
I0
I0
t(S'p'
I-2
I2
t(S't'
I1
I2
t(S'p'
I-1
I0
t(S'f'
I1
I0
ttp2
I3
tp3
F-675
s(((S'f'
I5
I-1
t(S't'
I5
I1
t(S'p'
I3
I-1
t(S'f'
I4
I-1
t(S'p'
I2
I1
t(S'p'
I1
I-1
ttp4
I2
tp5
F-3.7596785490000006
s(((S'p'
I3
I0
t(S'f'
I4
I0
t(S'p'
I1
I0
t(S'f'
I5
I0
t(S't'
I5
I2
t(S'p'
I2
I2
ttp6
I1
tp7
F-3.1425039000000003
s(((S'p'
I2
I-2
t(S'f'
I4
I-2
t(S't'
I4
I0
t(S'p'
I1
I0
t(S'f'
I3
I-2
t(S'p'
I0
I-2
ttp8
I2
tp9
F-3.6977620590000004
s(((S'f'
I1
I-1
t(S'f'
I0
I-1
t(S'p'
I-1
I-1
t(S'p'
I-3
I-1
t(S't'
I1
I1
t(S'p'
I-2
I1
ttp10
I2
tp11
F0
s(g6
I0
tp12
F-3.7544370390000008
s(((S'f'
I-1
I-1
t(S'p'
I-4
I-1
t(S'f'
I0
I-1
t(S't'
I0
I1
t(S'p'
I-2
I-1
t(S'p'
I-3
I1
ttp13
I1
tp14
F0
s(g13
I0
tp15
F1999.9998000000001
s(((S'f'
I5
I-2
t(S'p'
I3
I-2
t(S't'
I5
I0
t(S'p'
I2
I0
t(S'f'
I4
I-2
t(S'p'
I1
I-2
ttp16
I2
tp17
F-3.7596785490000006
s(((S'p'
I-1
I1
t(S'f'
I2
I-1
t(S'f'
I1
I-1
t(S'p'
I-2
I-1
t(S'p'
I0
I-1
t(S't'
I2
I1
ttp18
I1
tp19
F-2499.9749999999999
s(g4
I0
tp20
F-3.6370906380000001
s(((S'f'
I0
I0
t(S'p'
I-4
I0
t(S'f'
I-1
I0
t(S'p'
I-3
I2
t(S't'
I0
I2
t(S'p'
I-2
I0
ttp21
I1
tp22
F0
s(g2
I0
tp23
F0
s(((S'f'
I1
I-2
t(S'f'
I0
I-2
t(S'p'
I-1
I-2
t(S'p'
I-3
I-2
t(S'p'
I-2
I0
t(S't'
I1
I0
ttp24
I1
tp25
F1025.3079000000002
s(((S'f'
I2
I-1
t(S't'
I3
I1
t(S'p'
I1
I-1
t(S'f'
I3
I-1
t(S'p'
I-1
I-1
t(S'p'
I0
I1
ttp26
I0
tp27
F-2497.5
s(g8
I1
tp28
F-3.9196560323790006
s(g10
I3
tp29
F1549.98873
s(g6
I3
tp30
F-2250
s(((S'f'
I2
I-2
t(S'f'
I1
I-2
t(S'p'
I-1
I0
t(S'p'
I-2
I-2
t(S'p'
I0
I-2
t(S't'
I2
I0
ttp31
I3
tp32
F1799
s(((S'p'
I2
I-1
t(S'p'
I1
I1
t(S't'
I4
I1
t(S'f'
I4
I-1
t(S'f'
I3
I-1
t(S'p'
I0
I-1
ttp33
I3
tp34
F1307.4337369429468
s((S't'
I0
I0
tp35
I0
tp36
F0
s(((S't'
I3
I2
t(S'p'
I0
I2
t(S'f'
I3
I0
t(S'p'
I1
I0
t(S'f'
I2
I0
t(S'p'
I-1
I0
ttp37
I3
tp38
F-2497.5
s(g16
I1
tp39
F-3.2689157490000005
s(g35
I3
tp40
F0
s(g13
I2
tp41
F0
s(g21
I2
tp42
F0
s(g2
I1
tp43
F-675
s(g18
I2
tp44
F1295.6481656910003
s(g26
I1
tp45
F1176.8199838897372
s(g16
I0
tp46
F-3.7596785490000006
s(g8
I0
tp47
F-3.7596785490000006
s(g35
I1
tp48
F0
s(g10
I0
tp49
F0
s(g6
I2
tp50
F-3.1425039000000003
s(g33
I2
tp51
F-3.6464592690000002
s(g4
I3
tp52
F-3.7241705627999999
s(g31
I2
tp53
F-2499.9749999999999
s(g37
I0
tp54
F1308.759688561536
s(g35
I2
tp55
F0
s(g31
I0
tp56
F1456.1181000000001
s(g24
I0
tp57
F1797.2009999999839
s(g21
I3
tp58
F0
s(g18
I3
tp59
F1144.072782
s(g26
I2
tp60
F1162.803196746803
s(g37
I2
tp61
F-2250
s(g10
I1
tp62
F-675
s(g33
I1
tp63
F-2475
s(g2
I2
tp64
F0
s(g24
I3
tp65
F2000
s(g37
I1
tp66
F-3.1425039000000003
s(g13
I3
tp67
F0
s(g8
I3
tp68
F-2250
s(g4
I1
tp69
F-3.7105974180000008
s(g31
I1
tp70
F1453.8321876420002
s(g24
I2
tp71
F1618.098381
s(g16
I3
tp72
F-3.2027338800000003
s(g18
I0
tp73
F1618.1000000000001
s(g26
I3
tp74
F1455.2900000000002
s(g33
I0
tp75
F-3.7663010370000007
s(g21
I0
tp76
F-225
s.