(dp1
(((S'f'
I5
I-1
t(S't'
I5
I1
t(S'p'
I3
I-1
t(S'f'
I4
I-1
t(S'p'
I2
I1
t(S'p'
I1
I-1
ttp2
I2
tp3
F-3.7596785490000006
s(((S'p'
I3
I0
t(S'f'
I4
I0
t(S'p'
I1
I0
t(S'f'
I5
I0
t(S't'
I5
I2
t(S'p'
I2
I2
ttp4
I1
tp5
F-3.7596785490000006
s(((S'p'
I2
I-2
t(S'f'
I4
I-2
t(S't'
I4
I0
t(S'p'
I1
I0
t(S'f'
I3
I-2
t(S'p'
I0
I-2
ttp6
I2
tp7
F-3.7000390590000007
s((S't'
I0
I0
tp8
I0
tp9
F0
s(g4
I0
tp10
F-3.8329753655700003
s(((S'f'
I2
I-2
t(S'f'
I1
I-2
t(S'p'
I-1
I0
t(S'p'
I-2
I-2
t(S'p'
I0
I-2
t(S't'
I2
I0
ttp11
I2
tp12
F-2499.9999750000002
s(((S't'
I3
I2
t(S'p'
I0
I2
t(S'f'
I3
I0
t(S'p'
I1
I0
t(S'f'
I2
I0
t(S'p'
I-1
I0
ttp13
I2
tp14
F-2475
s(((S'f'
I5
I-2
t(S'p'
I3
I-2
t(S't'
I5
I0
t(S'p'
I2
I0
t(S'f'
I4
I-2
t(S'p'
I1
I-2
ttp15
I2
tp16
F-3.7596785490000006
s(((S'p'
I-1
I1
t(S'f'
I2
I-1
t(S'f'
I1
I-1
t(S'p'
I-2
I-1
t(S'p'
I0
I-1
t(S't'
I2
I1
ttp17
I1
tp18
F-2499.9749999999999
s(g2
I0
tp19
F-3.7000480590000002
s(((S'f'
I0
I0
t(S'p'
I-4
I0
t(S'f'
I-1
I0
t(S'p'
I-3
I2
t(S't'
I0
I2
t(S'p'
I-2
I0
ttp20
I1
tp21
F-675
s(((S'f'
I1
I-2
t(S'f'
I0
I-2
t(S'p'
I-1
I-2
t(S'p'
I-3
I-2
t(S'p'
I-2
I0
t(S't'
I1
I0
ttp22
I1
tp23
F1369.0240354098
s(((S'f'
I2
I-1
t(S't'
I3
I1
t(S'p'
I1
I-1
t(S'f'
I3
I-1
t(S'p'
I-1
I-1
t(S'p'
I0
I1
ttp24
I0
tp25
F-2499.9974999999999
s(g6
I1
tp26
F-3.7633283604000005
s(g8
I1
tp27
F0
s(g4
I3
tp28
F-2497.5
s(g11
I3
tp29
F1799
s(((S'p'
I2
I-1
t(S'p'
I1
I1
t(S't'
I4
I1
t(S'f'
I4
I-1
t(S'f'
I3
I-1
t(S'p'
I0
I-1
ttp30
I3
tp31
F-3.3994603350998998
s(((S'f'
I1
I-1
t(S'f'
I0
I-1
t(S'p'
I-1
I-1
t(S'p'
I-3
I-1
t(S't'
I1
I1
t(S'p'
I-2
I1
ttp32
I2
tp33
F1309.5900810000003
s(g13
I3
tp34
F-2250
s(g15
I1
tp35
F-3.7600761060000005
s(g32
I3
tp36
F-225
s(g32
I1
tp37
F0
s(((S'f'
I-1
I-1
t(S'p'
I-4
I-1
t(S'f'
I0
I-1
t(S't'
I0
I1
t(S'p'
I-2
I-1
t(S'p'
I-3
I1
ttp38
I2
tp39
F0
s(g20
I2
tp40
F0
s(g22
I2
tp41
F1601.9188935660811
s(g17
I2
tp42
F1308.6298108389333
s(g24
I1
tp43
F1143.8236835707467
s(g6
I0
tp44
F-3.7596785490000006
s(g8
I2
tp45
F0
s(g4
I2
tp46
F-3.7596785490000006
s(g30
I2
tp47
F-3.8967271283160008
s(g2
I3
tp48
F-3.8423030889690004
s(g13
I0
tp49
F1307.4489775364223
s(g15
I0
tp50
F-3.2294185290000001
s(g11
I0
tp51
F1616.4801810000001
s(g22
I0
tp52
F1798.8200999999983
s(g20
I3
tp53
F0
s(g17
I3
tp54
F1195.1049779999998
s(g24
I2
tp55
F-3.7139365079999997
s(g38
I0
tp56
F1800
s(g8
I3
tp57
F0
s(g30
I1
tp58
F-2250
s(g22
I3
tp59
F2000
s(g38
I3
tp60
F-225
s(g13
I1
tp61
F-3.7596785490000006
s(g6
I3
tp62
F-2250
s(g2
I1
tp63
F-3.7596885390000008
s(g11
I1
tp64
F1309.5162065610002
s(g38
I1
tp65
F-675
s(g15
I3
tp66
F-3.2692357800000003
s(g17
I0
tp67
F1618.1000000000001
s(g24
I3
tp68
F1455.2900000000002
s(g20
I0
tp69
F-225
s(g30
I0
tp70
F-3.7596875490000006
s(g32
I0
tp71
F1798.99819938
s.