(dp1
(((S'p'
I-3
I0
t(S'f'
I0
I0
t(S'p'
I-2
I2
t(S't'
I1
I2
t(S'p'
I-1
I0
t(S'f'
I1
I0
ttp2
I3
tp3
F-675
s(((S'f'
I5
I-1
t(S't'
I5
I1
t(S'p'
I3
I-1
t(S'f'
I4
I-1
t(S'p'
I2
I1
t(S'p'
I1
I-1
ttp4
I2
tp5
F-3.2706937800000002
s(((S'p'
I3
I0
t(S'f'
I4
I0
t(S'p'
I1
I0
t(S'f'
I5
I0
t(S't'
I5
I2
t(S'p'
I2
I2
ttp6
I1
tp7
F-3.1425039000000003
s(((S'p'
I2
I-2
t(S'f'
I4
I-2
t(S't'
I4
I0
t(S'p'
I1
I0
t(S'f'
I3
I-2
t(S'p'
I0
I-2
ttp8
I2
tp9
F-3.6136095480000008
s((S't'
I0
I0
tp10
I0
tp11
F0
s(g6
I0
tp12
F-3.2640427800000005
s(((S'f'
I2
I-2
t(S'f'
I1
I-2
t(S'p'
I-1
I0
t(S'p'
I-2
I-2
t(S'p'
I0
I-2
t(S't'
I2
I0
ttp13
I2
tp14
F-2499.75
s(g8
I0
tp15
F-3.7596785490000006
s(((S't'
I3
I2
t(S'p'
I0
I2
t(S'f'
I3
I0
t(S'p'
I1
I0
t(S'f'
I2
I0
t(S'p'
I-1
I0
ttp16
I2
tp17
F-2475
s(((S'f'
I5
I-2
t(S'p'
I3
I-2
t(S't'
I5
I0
t(S'p'
I2
I0
t(S'f'
I4
I-2
t(S'p'
I1
I-2
ttp18
I2
tp19
F-3.1425039000000003
s(((S'p'
I-1
I1
t(S'f'
I2
I-1
t(S'f'
I1
I-1
t(S'p'
I-2
I-1
t(S'p'
I0
I-1
t(S't'
I2
I1
ttp20
I1
tp21
F-2499.9999750000002
s(g4
I0
tp22
F-3.7125712980000003
s(((S'f'
I0
I0
t(S'p'
I-4
I0
t(S'f'
I-1
I0
t(S'p'
I-3
I2
t(S't'
I0
I2
t(S'p'
I-2
I0
ttp23
I1
tp24
F0
s(g2
I0
tp25
F-225
s(((S'f'
I1
I-2
t(S'f'
I0
I-2
t(S'p'
I-1
I-2
t(S'p'
I-3
I-2
t(S'p'
I-2
I0
t(S't'
I1
I0
ttp26
I1
tp27
F1045.6167266100001
s(((S'f'
I2
I-1
t(S't'
I3
I1
t(S'p'
I1
I-1
t(S'f'
I3
I-1
t(S'p'
I-1
I-1
t(S'p'
I0
I1
ttp28
I0
tp29
F-2499.9974999999999
s(g8
I1
tp30
F-3.7667895066000003
s(g10
I1
tp31
F0
s(g6
I3
tp32
F-2250
s(g13
I3
tp33
F1799
s(((S'p'
I2
I-1
t(S'p'
I1
I1
t(S't'
I4
I1
t(S'f'
I4
I-1
t(S'f'
I3
I-1
t(S'p'
I0
I-1
ttp34
I3
tp35
F1295.6406106160521
s(((S'f'
I1
I-1
t(S'f'
I0
I-1
t(S'p'
I-1
I-1
t(S'p'
I-3
I-1
t(S't'
I1
I1
t(S'p'
I-2
I1
ttp36
I2
tp37
F1455.2754471000003
s(g16
I3
tp38
F-2250
s(g18
I1
tp39
F-3.3132090600000006
s(g36
I3
tp40
F-225
s(g36
I1
tp41
F-742.5
s(((S'f'
I-1
I-1
t(S'p'
I-4
I-1
t(S'f'
I0
I-1
t(S't'
I0
I1
t(S'p'
I-2
I-1
t(S'p'
I-3
I1
ttp42
I2
tp43
F0
s(g23
I2
tp44
F-675
s(g2
I1
tp45
F-675
s(g20
I2
tp46
F1308.7609868795
s(g28
I1
tp47
F-3.7712213991900008
s(g36
I0
tp48
F0
s(g10
I2
tp49
F0
s(g6
I2
tp50
F-2.4642900000000001
s(g34
I2
tp51
F-3.3186053700000002
s(g4
I3
tp52
F-3.7102166280000004
s(g16
I0
tp53
F1177.5685484133003
s(g18
I0
tp54
F-3.1425039000000003
s(g18
I3
tp55
F-3.7391674779000001
s(g13
I0
tp56
F1617.8971949100001
s(g26
I0
tp57
F1798.8200999999999
s(g23
I3
tp58
F-675
s(g20
I3
tp59
F1044.3308202000003
s(g28
I2
tp60
F952.52928049245247
s(g42
I0
tp61
F1800
s(g10
I3
tp62
F0
s(g34
I1
tp63
F-2250
s(g2
I2
tp64
F-2250
s(g26
I3
tp65
F2000
s(g42
I3
tp66
F0
s(g16
I1
tp67
F-3.7596785490000006
s(g8
I3
tp68
F-2250
s(g4
I1
tp69
F-3.1425939000000001
s(g13
I1
tp70
F1453.8330081000001
s(g26
I2
tp71
F1618.099983819
s(g42
I1
tp72
F-675
s(g20
I0
tp73
F1618.1000000000001
s(g28
I3
tp74
F1455.2900000000002
s(g34
I0
tp75
F-3.7595490390000004
s(g23
I0
tp76
F-225
s.