(dp1
(((S'p'
I-3
I0
t(S'f'
I0
I0
t(S'p'
I-2
I2
t(S't'
I1
I2
t(S'p'
I-1
I0
t(S'f'
I1
I0
ttp2
I3
tp3
F-675
s(((S'f'
I1
I-2
t(S'f'
I0
I-2
t(S'p'
I-1
I-2
t(S'p'
I-3
I-2
t(S'p'
I-2
I0
t(S't'
I1
I0
ttp4
I0
tp5
F1797.2001
s(((S'p'
I3
I0
t(S'f'
I4
I0
t(S'p'
I1
I0
t(S'f'
I5
I0
t(S't'
I5
I2
t(S'p'
I2
I2
ttp6
I1
tp7
F-2.4642900000000001
s(((S'p'
I2
I-2
t(S'f'
I4
I-2
t(S't'
I4
I0
t(S'p'
I1
I0
t(S'f'
I3
I-2
t(S'p'
I0
I-2
ttp8
I2
tp9
F-3.0025359000000007
s((S't'
I0
I0
tp10
I0
tp11
F0
s(g6
I0
tp12
F-2.4074279999999999
s(((S'f'
I2
I-2
t(S'f'
I1
I-2
t(S'p'
I-1
I0
t(S'p'
I-2
I-2
t(S'p'
I0
I-2
t(S't'
I2
I0
ttp13
I2
tp14
F-2499.9749999999999
s(((S't'
I3
I2
t(S'p'
I0
I2
t(S'f'
I3
I0
t(S'p'
I1
I0
t(S'f'
I2
I0
t(S'p'
I-1
I0
ttp15
I2
tp16
F-2475
s(((S'f'
I5
I-2
t(S'p'
I3
I-2
t(S't'
I5
I0
t(S'p'
I2
I0
t(S'f'
I4
I-2
t(S'p'
I1
I-2
ttp17
I2
tp18
F-3.1425039000000003
s(((S'p'
I-1
I1
t(S'f'
I2
I-1
t(S'f'
I1
I-1
t(S'p'
I-2
I-1
t(S'p'
I0
I-1
t(S't'
I2
I1
ttp19
I1
tp20
F-2499.9749999999999
s(((S'f'
I5
I-1
t(S't'
I5
I1
t(S'p'
I3
I-1
t(S'f'
I4
I-1
t(S'p'
I2
I1
t(S'p'
I1
I-1
ttp21
I0
tp22
F-3.1971303899999999
s(((S'f'
I0
I0
t(S'p'
I-4
I0
t(S'f'
I-1
I0
t(S'p'
I-3
I2
t(S't'
I0
I2
t(S'p'
I-2
I0
ttp23
I1
tp24
F-675
s(g2
I0
tp25
F-225
s(g4
I1
tp26
F1207.2942080868781
s(((S'f'
I2
I-1
t(S't'
I3
I1
t(S'p'
I1
I-1
t(S'f'
I3
I-1
t(S'p'
I-1
I-1
t(S'p'
I0
I1
ttp27
I0
tp28
F-2499.9974999999999
s(g8
I1
tp29
F-3.3206907870000002
s(g10
I1
tp30
F0
s(g6
I3
tp31
F-2250
s(g13
I3
tp32
F1799
s(((S'p'
I2
I-1
t(S'p'
I1
I1
t(S't'
I4
I1
t(S'f'
I4
I-1
t(S'f'
I3
I-1
t(S'p'
I0
I-1
ttp33
I3
tp34
F1308.5336568322543
s(((S'f'
I1
I-1
t(S'f'
I0
I-1
t(S'p'
I-1
I-1
t(S'p'
I-3
I-1
t(S't'
I1
I1
t(S'p'
I-2
I1
ttp35
I2
tp36
F-0.90000000000000002
s(g15
I3
tp37
F-2250
s(g17
I1
tp38
F-3.0738798000000003
s(g35
I3
tp39
F-225
s(g35
I1
tp40
F-675
s(((S'f'
I-1
I-1
t(S'p'
I-4
I-1
t(S'f'
I0
I-1
t(S't'
I0
I1
t(S'p'
I-2
I-1
t(S'p'
I-3
I1
ttp41
I2
tp42
F-225.72900000000001
s(g23
I2
tp43
F-675
s(g4
I2
tp44
F1601.9027100000001
s(g19
I2
tp45
F1308.7478816220421
s(g27
I1
tp46
F1172.5162160523855
s(g8
I0
tp47
F-3.1425039000000003
s(g10
I2
tp48
F0
s(g6
I2
tp49
F-2.4642900000000001
s(g33
I2
tp50
F-3.0922362900000007
s(g21
I3
tp51
F-3.1480336800000002
s(g15
I0
tp52
F1308.6298075040902
s(g17
I0
tp53
F-3.1425039000000003
s(g13
I0
tp54
F1616.4801810000001
s(g33
I0
tp55
F-3.0688749
s(g23
I3
tp56
F0
s(g19
I3
tp57
F1368.4886350693218
s(g27
I2
tp58
F1170.1802938886021
s(g41
I0
tp59
F0
s(g2
I1
tp60
F0
s(g10
I3
tp61
F0
s(g33
I1
tp62
F-2475
s(g2
I2
tp63
F0
s(g4
I3
tp64
F2000
s(g41
I3
tp65
F0
s(g15
I1
tp66
F-3.7596785490000006
s(g8
I3
tp67
F-2250
s(g21
I1
tp68
F-2.3922900000000005
s(g13
I1
tp69
F-1.629
s(g41
I1
tp70
F-675
s(g17
I3
tp71
F-3.2718181500000001
s(g19
I0
tp72
F1618.1000000000001
s(g27
I3
tp73
F1455.2900000000002
s(g23
I0
tp74
F-225
s(g21
I2
tp75
F-2.4642900000000001
s(g35
I0
tp76
F1798.998200099838
s.