(dp1
(((S'p'
I-3
I0
t(S'f'
I0
I0
t(S'p'
I-2
I2
t(S't'
I1
I2
t(S'p'
I-1
I0
t(S'f'
I1
I0
ttp2
I3
tp3
F0
s(((S'f'
I1
I-2
t(S'f'
I0
I-2
t(S'p'
I-1
I-2
t(S'p'
I-3
I-2
t(S'p'
I-2
I0
t(S't'
I1
I0
ttp4
I0
tp5
F1798.9982009999999
s(((S'p'
I2
I-2
t(S'f'
I4
I-2
t(S't'
I4
I0
t(S'p'
I1
I0
t(S'f'
I3
I-2
t(S'p'
I0
I-2
ttp6
I2
tp7
F-3.7664606880000004
s((S't'
I0
I0
tp8
I0
tp9
F0
s(((S'p'
I3
I0
t(S'f'
I4
I0
t(S'p'
I1
I0
t(S'f'
I5
I0
t(S't'
I5
I2
t(S'p'
I2
I2
ttp10
I0
tp11
F-3.7649765880000006
s(((S'f'
I2
I-2
t(S'f'
I1
I-2
t(S'p'
I-1
I0
t(S'p'
I-2
I-2
t(S'p'
I0
I-2
t(S't'
I2
I0
ttp12
I2
tp13
F-2499.9974999999999
s(((S't'
I3
I2
t(S'p'
I0
I2
t(S'f'
I3
I0
t(S'p'
I1
I0
t(S'f'
I2
I0
t(S'p'
I-1
I0
ttp14
I2
tp15
F-2475
s(((S'f'
I5
I-2
t(S'p'
I3
I-2
t(S't'
I5
I0
t(S'p'
I2
I0
t(S'f'
I4
I-2
t(S'p'
I1
I-2
ttp16
I2
tp17
F-3.7596785490000006
s(((S'p'
I-1
I1
t(S'f'
I2
I-1
t(S'f'
I1
I-1
t(S'p'
I-2
I-1
t(S'p'
I0
I-1
t(S't'
I2
I1
ttp18
I1
tp19
F-2499.9999750000002
s(((S'f'
I5
I-1
t(S't'
I5
I1
t(S'p'
I3
I-1
t(S'f'
I4
I-1
t(S'p'
I2
I1
t(S'p'
I1
I-1
ttp20
I1
tp21
F-3.1499658000000004
s(g20
I0
tp22
F-3.7596785490000006
s(((S'f'
I0
I0
t(S'p'
I-4
I0
t(S'f'
I-1
I0
t(S'p'
I-3
I2
t(S't'
I0
I2
t(S'p'
I-2
I0
ttp23
I1
tp24
F0
s(g2
I0
tp25
F-225
s(g4
I1
tp26
F1368.6435424620001
s(((S'f'
I2
I-1
t(S't'
I3
I1
t(S'p'
I1
I-1
t(S'f'
I3
I-1
t(S'p'
I-1
I-1
t(S'p'
I0
I1
ttp27
I0
tp28
F-2497.5
s(g6
I1
tp29
F-3.3013617480000002
s(g8
I1
tp30
F0
s(g10
I3
tp31
F-2475
s(g12
I3
tp32
F1799
s(((S'p'
I2
I-1
t(S'p'
I1
I1
t(S't'
I4
I1
t(S'f'
I4
I-1
t(S'f'
I3
I-1
t(S'p'
I0
I-1
ttp33
I3
tp34
F1308.760999986886
s(((S'f'
I1
I-1
t(S'f'
I0
I-1
t(S'p'
I-1
I-1
t(S'p'
I-3
I-1
t(S't'
I1
I1
t(S'p'
I-2
I1
ttp35
I2
tp36
F-1.629
s(g14
I3
tp37
F-2250
s(g16
I1
tp38
F-3.7665197370000003
s(g35
I3
tp39
F-225
s(g35
I1
tp40
F-675
s(((S'f'
I-1
I-1
t(S'p'
I-4
I-1
t(S'f'
I0
I-1
t(S't'
I0
I1
t(S'p'
I-2
I-1
t(S'p'
I-3
I1
ttp41
I2
tp42
F0
s(g23
I2
tp43
F-675
s(g2
I1
tp44
F-675
s(g18
I2
tp45
F1307.4491604503089
s(g27
I1
tp46
F1176.8390833390913
s(g6
I0
tp47
F-3.7596785490000006
s(g18
I0
tp48
F1618.1000000000001
s(g8
I2
tp49
F0
s(g10
I2
tp50
F-3.7596785490000006
s(g33
I2
tp51
F-3.1425939000000001
s(g20
I3
tp52
F1058.8819975850909
s(g14
I0
tp53
F1308.7596879529756
s(g16
I0
tp54
F-3.7596785490000006
s(g12
I0
tp55
F1616.480999999932
s(g23
I3
tp56
F0
s(g18
I3
tp57
F1368.93764500362
s(g27
I2
tp58
F1176.8848988197428
s(g41
I0
tp59
F0
s(g8
I3
tp60
F0
s(g33
I1
tp61
F-2250
s(g2
I2
tp62
F-2250
s(g4
I3
tp63
F2000
s(g41
I3
tp64
F0
s(g14
I1
tp65
F-3.8776236526800005
s(g6
I3
tp66
F-2250
s(g10
I1
tp67
F-3.7596785490000006
s(g12
I1
tp68
F1455.2899985423198
s(g4
I2
tp69
F1618.0999838189632
s(g41
I1
tp70
F-675
s(g16
I3
tp71
F-3.7596785490000006
s(g33
I0
tp72
F-3.7596875490000006
s(g27
I3
tp73
F1455.2900000000002
s(g23
I0
tp74
F0
s(g20
I2
tp75
F-3.7596785490000006
s(g35
I0
tp76
F1798.9999982001
s.