(dp1
(((S'p'
I-3
I0
t(S'f'
I0
I0
t(S'p'
I-2
I2
t(S't'
I1
I2
t(S'p'
I-1
I0
t(S'f'
I1
I0
ttp2
I3
tp3
F0
s(((S'f'
I1
I-2
t(S'f'
I0
I-2
t(S'p'
I-1
I-2
t(S'p'
I-3
I-2
t(S'p'
I-2
I0
t(S't'
I1
I0
ttp4
I0
tp5
F1798.9998200099999
s(((S'p'
I2
I-2
t(S'f'
I4
I-2
t(S't'
I4
I0
t(S'p'
I1
I0
t(S'f'
I3
I-2
t(S'p'
I0
I-2
ttp6
I2
tp7
F-4.3727138306280002
s((S't'
I0
I0
tp8
I0
tp9
F0
s(((S'p'
I3
I0
t(S'f'
I4
I0
t(S'p'
I1
I0
t(S'f'
I5
I0
t(S't'
I5
I2
t(S'p'
I2
I2
ttp10
I0
tp11
F-3.7598403870000006
s(((S'f'
I2
I-2
t(S'f'
I1
I-2
t(S'p'
I-1
I0
t(S'p'
I-2
I-2
t(S'p'
I0
I-2
t(S't'
I2
I0
ttp12
I2
tp13
F-2499.9999999749998
s(g6
I0
tp14
F-3.7596785490000006
s(((S't'
I3
I2
t(S'p'
I0
I2
t(S'f'
I3
I0
t(S'p'
I1
I0
t(S'f'
I2
I0
t(S'p'
I-1
I0
ttp15
I2
tp16
F-2497.5
s(((S'f'
I5
I-2
t(S'p'
I3
I-2
t(S't'
I5
I0
t(S'p'
I2
I0
t(S'f'
I4
I-2
t(S'p'
I1
I-2
ttp17
I2
tp18
F-4.4274615192180002
s(((S'p'
I-1
I1
t(S'f'
I2
I-1
t(S'f'
I1
I-1
t(S'p'
I-2
I-1
t(S'p'
I0
I-1
t(S't'
I2
I1
ttp19
I1
tp20
F-2499.75
s(((S'f'
I5
I-1
t(S't'
I5
I1
t(S'p'
I3
I-1
t(S'f'
I4
I-1
t(S'p'
I2
I1
t(S'p'
I1
I-1
ttp21
I1
tp22
F-3.7589594490000007
s(g21
I0
tp23
F-4.2777824616900011
s(g2
I0
tp24
F-225
s(g4
I1
tp25
F1059.760393147521
s(((S'f'
I2
I-1
t(S't'
I3
I1
t(S'p'
I1
I-1
t(S'f'
I3
I-1
t(S'p'
I-1
I-1
t(S'p'
I0
I1
ttp26
I0
tp27
F-2497.5
s(g6
I1
tp28
F-3.3377138190900002
s(g8
I1
tp29
F0
s(g10
I3
tp30
F-2475
s(g12
I3
tp31
F1799
s(((S'p'
I2
I-1
t(S'p'
I1
I1
t(S't'
I4
I1
t(S'f'
I4
I-1
t(S'f'
I3
I-1
t(S'p'
I0
I-1
ttp32
I3
tp33
F1308.7608688032858
s(((S'f'
I1
I-1
t(S'f'
I0
I-1
t(S'p'
I-1
I-1
t(S'p'
I-3
I-1
t(S't'
I1
I1
t(S'p'
I-2
I1
ttp34
I2
tp35
F1455.2899999985311
s(g15
I3
tp36
F-2250
s(g17
I1
tp37
F-4.2973356301200001
s(g34
I3
tp38
F-225
s(g34
I1
tp39
F-675
s(((S'f'
I-1
I-1
t(S'p'
I-4
I-1
t(S'f'
I0
I-1
t(S't'
I0
I1
t(S'p'
I-2
I-1
t(S'p'
I-3
I1
ttp40
I2
tp41
F0
s(g2
I1
tp42
F0
s(g19
I2
tp43
F1308.75968884858
s(g26
I1
tp44
F1172.5165954814506
s(g34
I0
tp45
F-0.90000000000000002
s(g19
I0
tp46
F1618.1000000000001
s(g8
I2
tp47
F0
s(g10
I2
tp48
F-3.7596785490000006
s(g32
I2
tp49
F-3.2160423600000003
s(g21
I3
tp50
F-3.843075078099
s(g15
I0
tp51
F1308.6297979989122
s(g17
I0
tp52
F-4.3213074795900015
s(g17
I3
tp53
F-3.9723576772590001
s(g12
I0
tp54
F1617.897194181
s(g19
I3
tp55
F1059.6324870112726
s(g26
I2
tp56
F1176.8773432579894
s(g40
I0
tp57
F1800
s(g8
I3
tp58
F0
s(g32
I1
tp59
F-2475
s(g2
I2
tp60
F0
s(g4
I3
tp61
F2000
s(g40
I3
tp62
F0
s(g15
I1
tp63
F-3.7596785490000006
s(g6
I3
tp64
F-2475
s(g10
I1
tp65
F-3.7596785490000006
s(g12
I1
tp66
F1455.2899985422541
s(g4
I2
tp67
F1618.0983810000002
s(g40
I1
tp68
F0
s(g32
I0
tp69
F-3.8537839296900001
s(g26
I3
tp70
F1455.2900000000002
s(g21
I2
tp71
F-3.7596785490000006
s.