(dp1
(((S'p'
I-3
I0
t(S'f'
I0
I0
t(S'p'
I-2
I2
t(S't'
I1
I2
t(S'p'
I-1
I0
t(S'f'
I1
I0
ttp2
I3
tp3
F0
s(((S'f'
I5
I-1
t(S't'
I5
I1
t(S'p'
I3
I-1
t(S'f'
I4
I-1
t(S'p'
I2
I1
t(S'p'
I1
I-1
ttp4
I2
tp5
F-3.7596785490000006
s(((S'p'
I3
I0
t(S'f'
I4
I0
t(S'p'
I1
I0
t(S'f'
I5
I0
t(S't'
I5
I2
t(S'p'
I2
I2
ttp6
I1
tp7
F-3.7596785490000006
s(((S'p'
I2
I-2
t(S'f'
I4
I-2
t(S't'
I4
I0
t(S'p'
I1
I0
t(S'f'
I3
I-2
t(S'p'
I0
I-2
ttp8
I2
tp9
F-4.2836045334390001
s((S't'
I0
I0
tp10
I0
tp11
F0
s(g6
I0
tp12
F-4.2911572650389997
s(((S'f'
I2
I-2
t(S'f'
I1
I-2
t(S'p'
I-1
I0
t(S'p'
I-2
I-2
t(S'p'
I0
I-2
t(S't'
I2
I0
ttp13
I2
tp14
F-2499.75
s(((S't'
I3
I2
t(S'p'
I0
I2
t(S'f'
I3
I0
t(S'p'
I1
I0
t(S'f'
I2
I0
t(S'p'
I-1
I0
ttp15
I2
tp16
F-2475
s(((S'f'
I5
I-2
t(S'p'
I3
I-2
t(S't'
I5
I0
t(S'p'
I2
I0
t(S'f'
I4
I-2
t(S'p'
I1
I-2
ttp17
I2
tp18
F-3.7785343860000005
s(((S'p'
I-1
I1
t(S'f'
I2
I-1
t(S'f'
I1
I-1
t(S'p'
I-2
I-1
t(S'p'
I0
I-1
t(S't'
I2
I1
ttp19
I1
tp20
F-2475
s(((S'p'
I2
I-1
t(S'p'
I1
I1
t(S't'
I4
I1
t(S'f'
I4
I-1
t(S'f'
I3
I-1
t(S'p'
I0
I-1
ttp21
I2
tp22
F-3.7126207097999999
s(((S'f'
I0
I0
t(S'p'
I-4
I0
t(S'f'
I-1
I0
t(S'p'
I-3
I2
t(S't'
I0
I2
t(S'p'
I-2
I0
ttp23
I1
tp24
F0
s(g2
I0
tp25
F-225
s(((S'f'
I1
I-2
t(S'f'
I0
I-2
t(S'p'
I-1
I-2
t(S'p'
I-3
I-2
t(S'p'
I-2
I0
t(S't'
I1
I0
ttp26
I1
tp27
F1368.4888610999997
s(((S'f'
I2
I-1
t(S't'
I3
I1
t(S'p'
I1
I-1
t(S'f'
I3
I-1
t(S'p'
I-1
I-1
t(S'p'
I0
I1
ttp28
I0
tp29
F-2499.9749999999999
s(g8
I1
tp30
F-3.590390169
s(g10
I1
tp31
F0
s(g6
I3
tp32
F-2250
s(g13
I3
tp33
F1799
s(g4
I1
tp34
F-3.7659281058000005
s(((S'f'
I1
I-1
t(S'f'
I0
I-1
t(S'p'
I-1
I-1
t(S'p'
I-3
I-1
t(S't'
I1
I1
t(S'p'
I-2
I1
ttp35
I2
tp36
F1309.5981000000002
s(g26
I2
tp37
F1617.9381000000001
s(g15
I3
tp38
F-2250
s(g17
I1
tp39
F-3.8680441292699999
s(g35
I3
tp40
F-247.5
s(g35
I1
tp41
F-675
s(((S'f'
I-1
I-1
t(S'p'
I-4
I-1
t(S'f'
I0
I-1
t(S't'
I0
I1
t(S'p'
I-2
I-1
t(S'p'
I-3
I1
ttp42
I2
tp43
F-225
s(g23
I2
tp44
F0
s(g2
I1
tp45
F0
s(g19
I2
tp46
F1177.5658211855102
s(g28
I1
tp47
F1176.3417678716933
s(g8
I0
tp48
F-3.7596785490000006
s(g10
I2
tp49
F0
s(g6
I2
tp50
F-3.9289726630800006
s(g4
I0
tp51
F-3.8155264776899998
s(g4
I3
tp52
F-3.8236302270900007
s(g15
I0
tp53
F1308.7478806277113
s(g17
I0
tp54
F-3.7596785490000006
s(g13
I0
tp55
F1617.9380181000001
s(g26
I0
tp56
F1797.2001
s(g23
I3
tp57
F0
s(g19
I3
tp58
F1352.6425619999998
s(g28
I2
tp59
F1176.341817022658
s(g42
I0
tp60
F1800
s(g10
I3
tp61
F0
s(g21
I1
tp62
F-2475
s(g2
I2
tp63
F0
s(g26
I3
tp64
F2000
s(g42
I3
tp65
F-225
s(g15
I1
tp66
F-3.7596785490000006
s(g8
I3
tp67
F-2250
s(g21
I3
tp68
F1308.7478808915114
s(g13
I1
tp69
F1455.1443075726193
s(g42
I1
tp70
F0
s(g17
I3
tp71
F-3.7664084439000005
s(g19
I0
tp72
F1618.1000000000001
s(g28
I3
tp73
F1455.2900000000002
s(g23
I0
tp74
F0
s(g21
I0
tp75
F-3.2993507699999998
s(g35
I0
tp76
F1798.9982009999999
s.