(dp1
(((S'f'
I1
I-2
t(S'f'
I0
I-2
t(S'p'
I-1
I-2
t(S'p'
I-3
I-2
t(S'p'
I-2
I0
t(S't'
I1
I0
ttp2
I0
tp3
F1798.8200099999999
s(((S'p'
I3
I0
t(S'f'
I4
I0
t(S'p'
I1
I0
t(S'f'
I5
I0
t(S't'
I5
I2
t(S'p'
I2
I2
ttp4
I1
tp5
F-3.1425039000000003
s(((S'p'
I2
I-2
t(S'f'
I4
I-2
t(S't'
I4
I0
t(S'p'
I1
I0
t(S'f'
I3
I-2
t(S'p'
I0
I-2
ttp6
I2
tp7
F-3.2036913899999999
s((S't'
I0
I0
tp8
I0
tp9
F0
s(g4
I0
tp10
F-3.3202139067000003
s(((S'f'
I2
I-2
t(S'f'
I1
I-2
t(S'p'
I-1
I0
t(S'p'
I-2
I-2
t(S'p'
I0
I-2
t(S't'
I2
I0
ttp11
I2
tp12
F-2250
s(((S't'
I3
I2
t(S'p'
I0
I2
t(S'f'
I3
I0
t(S'p'
I1
I0
t(S'f'
I2
I0
t(S'p'
I-1
I0
ttp13
I2
tp14
F-2475
s(((S'f'
I5
I-2
t(S'p'
I3
I-2
t(S't'
I5
I0
t(S'p'
I2
I0
t(S'f'
I4
I-2
t(S'p'
I1
I-2
ttp15
I2
tp16
F-3.1425039000000003
s(((S'p'
I-1
I1
t(S'f'
I2
I-1
t(S'f'
I1
I-1
t(S'p'
I-2
I-1
t(S'p'
I0
I-1
t(S't'
I2
I1
ttp17
I1
tp18
F-2497.5
s(((S'f'
I5
I-1
t(S't'
I5
I1
t(S'p'
I3
I-1
t(S'f'
I4
I-1
t(S'p'
I2
I1
t(S'p'
I1
I-1
ttp19
I0
tp20
F-3.7065934980000002
s(g2
I1
tp21
F1368.9520124400001
s(((S'f'
I2
I-1
t(S't'
I3
I1
t(S'p'
I1
I-1
t(S'f'
I3
I-1
t(S'p'
I-1
I-1
t(S'p'
I0
I1
ttp22
I0
tp23
F-2499.9997499999999
s(g6
I1
tp24
F-3.3134258646000001
s(g8
I1
tp25
F0
s(g4
I3
tp26
F-2497.5
s(g11
I3
tp27
F1799
s(((S'p'
I2
I-1
t(S'p'
I1
I1
t(S't'
I4
I1
t(S'f'
I4
I-1
t(S'f'
I3
I-1
t(S'p'
I0
I-1
ttp28
I3
tp29
F1307.4489673832513
s(((S'f'
I1
I-1
t(S'f'
I0
I-1
t(S'p'
I-1
I-1
t(S'p'
I-3
I-1
t(S't'
I1
I1
t(S'p'
I-2
I1
ttp30
I2
tp31
F0
s(g2
I2
tp32
F0
s(g13
I3
tp33
F-2475
s(g15
I1
tp34
F-3.3717755349000003
s(g30
I3
tp35
F0
s(g30
I1
tp36
F0
s(g17
I2
tp37
F1307.4497675991001
s(g22
I1
tp38
F-3.8917545087600005
s(g6
I0
tp39
F-3.7596785490000006
s(g8
I2
tp40
F0
s(g4
I2
tp41
F-3.1425039000000003
s(g28
I2
tp42
F-3.3114964059000003
s(g19
I3
tp43
F-3.2722063407000004
s(g13
I0
tp44
F1177.5627244323
s(g15
I0
tp45
F-3.1425039000000003
s(g11
I0
tp46
F1601.9099997361102
s(g28
I0
tp47
F-3.6455844690000001
s(g17
I3
tp48
F1297.7711999999999
s(g22
I2
tp49
F1143.822937640922
s(g8
I3
tp50
F0
s(g28
I1
tp51
F-2250
s(g2
I3
tp52
F2000
s(g13
I1
tp53
F-3.8213960139000003
s(g6
I3
tp54
F-2250
s(g19
I1
tp55
F-3.1426038000000003
s(g11
I1
tp56
F1455.1442254637075
s(g15
I3
tp57
F-3.7589495490000004
s(g17
I0
tp58
F1618.1000000000001
s(g22
I3
tp59
F1455.2900000000002
s(g19
I2
tp60
F-3.1425039000000003
s(g30
I0
tp61
F1798.9996581
s.