(dp1
(((S'f'
I1
I-2
t(S'f'
I0
I-2
t(S'p'
I-1
I-2
t(S'p'
I-3
I-2
t(S'p'
I-2
I0
t(S't'
I1
I0
ttp2
I0
tp3
F1798.8200999999999
s(((S'p'
I2
I-2
t(S'f'
I4
I-2
t(S't'
I4
I0
t(S'p'
I1
I0
t(S'f'
I3
I-2
t(S'p'
I0
I-2
ttp4
I2
tp5
F-3.8476941786000003
s(((S'f'
I1
I-1
t(S'f'
I0
I-1
t(S'p'
I-1
I-1
t(S'p'
I-3
I-1
t(S't'
I1
I1
t(S'p'
I-2
I1
ttp6
I2
tp7
F-0.90000000000000002
s(((S'p'
I3
I0
t(S'f'
I4
I0
t(S'p'
I1
I0
t(S'f'
I5
I0
t(S't'
I5
I2
t(S'p'
I2
I2
ttp8
I0
tp9
F-3.7598316390000006
s(((S'f'
I2
I-2
t(S'f'
I1
I-2
t(S'p'
I-1
I0
t(S'p'
I-2
I-2
t(S'p'
I0
I-2
t(S't'
I2
I0
ttp10
I2
tp11
F-2499.9999750000002
s(((S't'
I3
I2
t(S'p'
I0
I2
t(S'f'
I3
I0
t(S'p'
I1
I0
t(S'f'
I2
I0
t(S'p'
I-1
I0
ttp12
I2
tp13
F-2250
s(((S'f'
I5
I-2
t(S'p'
I3
I-2
t(S't'
I5
I0
t(S'p'
I2
I0
t(S'f'
I4
I-2
t(S'p'
I1
I-2
ttp14
I2
tp15
F-3.7596785490000006
s(((S'p'
I-1
I1
t(S'f'
I2
I-1
t(S'f'
I1
I-1
t(S'p'
I-2
I-1
t(S'p'
I0
I-1
t(S't'
I2
I1
ttp16
I1
tp17
F-2499.9999750000002
s(((S'f'
I5
I-1
t(S't'
I5
I1
t(S'p'
I3
I-1
t(S'f'
I4
I-1
t(S'p'
I2
I1
t(S'p'
I1
I-1
ttp18
I1
tp19
F-3.7589585490000008
s(g18
I0
tp20
F-3.8861446275000002
s(g2
I1
tp21
F1367.5058562842601
s(((S'f'
I2
I-1
t(S't'
I3
I1
t(S'p'
I1
I-1
t(S'f'
I3
I-1
t(S'p'
I-1
I-1
t(S'p'
I0
I1
ttp22
I0
tp23
F-2499.9749999999999
s(g4
I1
tp24
F-3.9665907055170004
s(g6
I3
tp25
F0
s(g8
I3
tp26
F-2250
s(g10
I3
tp27
F1799
s(((S'p'
I2
I-1
t(S'p'
I1
I1
t(S't'
I4
I1
t(S'f'
I4
I-1
t(S'f'
I3
I-1
t(S'p'
I0
I-1
ttp28
I3
tp29
F1307.4489055514946
s((S't'
I0
I0
tp30
I0
tp31
F0
s(g12
I3
tp32
F-2250
s(g14
I1
tp33
F-3.7592790570000005
s(g30
I3
tp34
F0
s(g2
I2
tp35
F1617.9326254076404
s(g16
I2
tp36
F1307.4498485910003
s(g22
I1
tp37
F952.63401156066027
s(g14
I0
tp38
F-3.7596785490000006
s(g4
I0
tp39
F-3.7596785490000006
s(g30
I1
tp40
F0
s(g6
I0
tp41
F1798.9999982009983
s(g8
I2
tp42
F-3.7596785490000006
s(g28
I2
tp43
F-3.3485818500000004
s(g18
I3
tp44
F-3.8650388896170003
s(g12
I0
tp45
F1295.6467236543001
s(g30
I2
tp46
F0
s(g10
I0
tp47
F1618.0983800991
s(g28
I0
tp48
F-4.1711226247799997
s(g16
I3
tp49
F1369.0111994338649
s(g22
I2
tp50
F1143.8332567585178
s(g6
I1
tp51
F0
s(g28
I1
tp52
F-2250
s(g2
I3
tp53
F2000
s(g12
I1
tp54
F-3.1425039000000003
s(g4
I3
tp55
F-2250
s(g8
I1
tp56
F-3.7596785490000006
s(g10
I1
tp57
F1455.1442910810001
s(g14
I3
tp58
F-4.1916184047899998
s(g16
I0
tp59
F1618.1000000000001
s(g22
I3
tp60
F1455.2900000000002
s(g18
I2
tp61
F-3.7596785490000006
s.