(dp1
(((S'p'
I-3
I0
t(S'f'
I0
I0
t(S'p'
I-2
I2
t(S't'
I1
I2
t(S'p'
I-1
I0
t(S'f'
I1
I0
ttp2
I3
tp3
F0
s(((S'f'
I1
I-2
t(S'f'
I0
I-2
t(S'p'
I-1
I-2
t(S'p'
I-3
I-2
t(S'p'
I-2
I0
t(S't'
I1
I0
ttp4
I0
tp5
F1798.9999980389985
s(((S'p'
I3
I0
t(S'f'
I4
I0
t(S'p'
I1
I0
t(S'f'
I5
I0
t(S't'
I5
I2
t(S'p'
I2
I2
ttp6
I1
tp7
F-3.7596785490000006
s(((S'p'
I2
I-2
t(S'f'
I4
I-2
t(S't'
I4
I0
t(S'p'
I1
I0
t(S'f'
I3
I-2
t(S'p'
I0
I-2
ttp8
I2
tp9
F-3.1425039000000003
s((S't'
I0
I0
tp10
I0
tp11
F0
s(g6
I0
tp12
F-3.7598316390000006
s(((S'f'
I2
I-2
t(S'f'
I1
I-2
t(S'p'
I-1
I0
t(S'p'
I-2
I-2
t(S'p'
I0
I-2
t(S't'
I2
I0
ttp13
I2
tp14
F-2497.5
s(((S't'
I3
I2
t(S'p'
I0
I2
t(S'f'
I3
I0
t(S'p'
I1
I0
t(S'f'
I2
I0
t(S'p'
I-1
I0
ttp15
I2
tp16
F-2250
s(((S'f'
I5
I-2
t(S'p'
I3
I-2
t(S't'
I5
I0
t(S'p'
I2
I0
t(S'f'
I4
I-2
t(S'p'
I1
I-2
ttp17
I2
tp18
F-3.1425039000000003
s(((S'p'
I-1
I1
t(S'f'
I2
I-1
t(S'f'
I1
I-1
t(S'p'
I-2
I-1
t(S'p'
I0
I-1
t(S't'
I2
I1
ttp19
I1
tp20
F-2499.75
s(((S'f'
I5
I-1
t(S't'
I5
I1
t(S'p'
I3
I-1
t(S'f'
I4
I-1
t(S'p'
I2
I1
t(S'p'
I1
I-1
ttp21
I0
tp22
F-3.5903828789999999
s(g21
I2
tp23
F-3.7596785490000006
s(g2
I0
tp24
F-225
s(g4
I1
tp25
F813.40640999994821
s(((S'f'
I2
I-1
t(S't'
I3
I1
t(S'p'
I1
I-1
t(S'f'
I3
I-1
t(S'p'
I-1
I-1
t(S'p'
I0
I1
ttp26
I0
tp27
F-2499.9749999999999
s(g8
I1
tp28
F-3.1753260000000001
s(g10
I1
tp29
F0
s(g6
I3
tp30
F-2250
s(g13
I3
tp31
F1799
s(((S'p'
I2
I-1
t(S'p'
I1
I1
t(S't'
I4
I1
t(S'f'
I4
I-1
t(S'f'
I3
I-1
t(S'p'
I0
I-1
ttp32
I3
tp33
F1308.7072898886674
s(((S'f'
I1
I-1
t(S'f'
I0
I-1
t(S'p'
I-1
I-1
t(S'p'
I-3
I-1
t(S't'
I1
I1
t(S'p'
I-2
I1
ttp34
I2
tp35
F1455.2754471000003
s(g15
I3
tp36
F-2250
s(g17
I1
tp37
F-3.7390432149000006
s(g34
I3
tp38
F0
s(g34
I1
tp39
F-675
s(g2
I1
tp40
F0
s(g19
I2
tp41
F1308.759651195161
s(g26
I1
tp42
F1176.8199941234652
s(g8
I0
tp43
F-3.3740295300000001
s(g10
I2
tp44
F0
s(g6
I2
tp45
F-3.7596785490000006
s(g32
I2
tp46
F-3.7481702490000002
s(g4
I2
tp47
F1618.0838188935654
s(g15
I0
tp48
F1308.7596887505804
s(g17
I0
tp49
F-3.6514803689999997
s(g13
I0
tp50
F1618.0838180669612
s(g19
I3
tp51
F1058.1226035300001
s(g26
I2
tp52
F1175.0266881625676
s(g10
I3
tp53
F0
s(g32
I1
tp54
F-2250
s(g2
I2
tp55
F0
s(g4
I3
tp56
F2000
s(g15
I1
tp57
F-3.1425039000000003
s(g8
I3
tp58
F-2250
s(g21
I1
tp59
F-3.7589585490000008
s(g13
I1
tp60
F1455.2754308100002
s(g17
I3
tp61
F-3.30629814
s(g19
I0
tp62
F1618.1000000000001
s(g26
I3
tp63
F1455.2900000000002
s(g21
I3
tp64
F1054.5086974238534
s(g32
I0
tp65
F-3.2029623900000002
s(g34
I0
tp66
F-0.90000000000000002
s.