(dp1
(((S'p'
I-3
I0
t(S'f'
I0
I0
t(S'p'
I-2
I2
t(S't'
I1
I2
t(S'p'
I-1
I0
t(S'f'
I1
I0
ttp2
I3
tp3
F-675
s(((S'f'
I1
I-2
t(S'f'
I0
I-2
t(S'p'
I-1
I-2
t(S'p'
I-3
I-2
t(S'p'
I-2
I0
t(S't'
I1
I0
ttp4
I0
tp5
F1798.9998201000001
s(((S'p'
I3
I0
t(S'f'
I4
I0
t(S'p'
I1
I0
t(S'f'
I5
I0
t(S't'
I5
I2
t(S'p'
I2
I2
ttp6
I1
tp7
F-3.6993100590000001
s(((S'p'
I2
I-2
t(S'f'
I4
I-2
t(S't'
I4
I0
t(S'p'
I1
I0
t(S'f'
I3
I-2
t(S'p'
I0
I-2
ttp8
I2
tp9
F-3.7596785490000006
s((S't'
I0
I0
tp10
I0
tp11
F0
s(g6
I0
tp12
F-3.7598316390000006
s(((S'f'
I2
I-2
t(S'f'
I1
I-2
t(S'p'
I-1
I0
t(S'p'
I-2
I-2
t(S'p'
I0
I-2
t(S't'
I2
I0
ttp13
I2
tp14
F-2499.9749999999999
s(((S't'
I3
I2
t(S'p'
I0
I2
t(S'f'
I3
I0
t(S'p'
I1
I0
t(S'f'
I2
I0
t(S'p'
I-1
I0
ttp15
I2
tp16
F-2250
s(((S'f'
I5
I-2
t(S'p'
I3
I-2
t(S't'
I5
I0
t(S'p'
I2
I0
t(S'f'
I4
I-2
t(S'p'
I1
I-2
ttp17
I2
tp18
F-3.7596785490000006
s(((S'p'
I-1
I1
t(S'f'
I2
I-1
t(S'f'
I1
I-1
t(S'p'
I-2
I-1
t(S'p'
I0
I-1
t(S't'
I2
I1
ttp19
I1
tp20
F-2497.5
s(((S'f'
I5
I-1
t(S't'
I5
I1
t(S'p'
I3
I-1
t(S'f'
I4
I-1
t(S'p'
I2
I1
t(S'p'
I1
I-1
ttp21
I0
tp22
F-3.2574259800000003
s(g21
I2
tp23
F-3.9258495714339001
s(((S'f'
I0
I0
t(S'p'
I-4
I0
t(S'f'
I-1
I0
t(S'p'
I-3
I2
t(S't'
I0
I2
t(S'p'
I-2
I0
ttp24
I1
tp25
F-675
s(g2
I0
tp26
F-225
s(g4
I1
tp27
F1367.7031507122001
s(((S'f'
I2
I-1
t(S't'
I3
I1
t(S'p'
I1
I-1
t(S'f'
I3
I-1
t(S'p'
I-1
I-1
t(S'p'
I0
I1
ttp28
I0
tp29
F-2497.5
s(g8
I1
tp30
F-3.6940375980000004
s(g10
I1
tp31
F0
s(g6
I3
tp32
F-2250
s(g13
I3
tp33
F1799
s(((S'p'
I2
I-1
t(S'p'
I1
I1
t(S't'
I4
I1
t(S'f'
I4
I-1
t(S'f'
I3
I-1
t(S'p'
I0
I-1
ttp34
I3
tp35
F1295.6416535412632
s(((S'f'
I1
I-1
t(S'f'
I0
I-1
t(S'p'
I-1
I-1
t(S'p'
I-3
I-1
t(S't'
I1
I1
t(S'p'
I-2
I1
ttp36
I2
tp37
F1440.7371000000003
s(g15
I3
tp38
F-2250
s(g17
I1
tp39
F-3.7060987590000005
s(g36
I3
tp40
F0
s(g36
I1
tp41
F-675
s(((S'f'
I-1
I-1
t(S'p'
I-4
I-1
t(S'f'
I0
I-1
t(S't'
I0
I1
t(S'p'
I-2
I-1
t(S'p'
I-3
I1
ttp42
I2
tp43
F0
s(g24
I2
tp44
F-675
s(g2
I1
tp45
F-675
s(g19
I2
tp46
F1295.6427120420003
s(g28
I1
tp47
F952.61973634090748
s(g8
I0
tp48
F-3.7596785490000006
s(g10
I2
tp49
F0
s(g6
I2
tp50
F-3.7596785490000006
s(g34
I2
tp51
F-3.6927490590000005
s(g4
I2
tp52
F1616.4819000000002
s(g15
I0
tp53
F1295.6424525737912
s(g17
I0
tp54
F-3.7596785490000006
s(g13
I0
tp55
F1616.480997623541
s(g24
I3
tp56
F-675
s(g19
I3
tp57
F1369.0993387911301
s(g28
I2
tp58
F952.56198387325367
s(g42
I0
tp59
F0
s(g10
I3
tp60
F0
s(g34
I1
tp61
F-2250
s(g2
I2
tp62
F0
s(g4
I3
tp63
F2000
s(g42
I3
tp64
F0
s(g15
I1
tp65
F-3.1425039000000003
s(g8
I3
tp66
F-2250
s(g21
I1
tp67
F-3.6993190590000005
s(g13
I1
tp68
F1455.1443008100002
s(g42
I1
tp69
F-675
s(g17
I3
tp70
F-3.1491378000000001
s(g19
I0
tp71
F1618.1000000000001
s(g28
I3
tp72
F1455.2900000000002
s(g21
I3
tp73
F-3.7959340539870001
s(g24
I0
tp74
F-225
s(g34
I0
tp75
F-3.7589585490000008
s(g36
I0
tp76
F1798.9999996581
s.