(dp1
(((S'p'
I-3
I0
t(S'f'
I0
I0
t(S'p'
I-2
I2
t(S't'
I1
I2
t(S'p'
I-1
I0
t(S'f'
I1
I0
ttp2
I3
tp3
F0
s(((S'f'
I1
I-2
t(S'f'
I0
I-2
t(S'p'
I-1
I-2
t(S'p'
I-3
I-2
t(S'p'
I-2
I0
t(S't'
I1
I0
ttp4
I0
tp5
F1798.9999999803811
s(((S'p'
I3
I0
t(S'f'
I4
I0
t(S'p'
I1
I0
t(S'f'
I5
I0
t(S't'
I5
I2
t(S'p'
I2
I2
ttp6
I1
tp7
F-3.1425039000000003
s(((S'p'
I2
I-2
t(S'f'
I4
I-2
t(S't'
I4
I0
t(S'p'
I1
I0
t(S'f'
I3
I-2
t(S'p'
I0
I-2
ttp8
I2
tp9
F-3.1433229000000003
s(((S'f'
I1
I-1
t(S'f'
I0
I-1
t(S'p'
I-1
I-1
t(S'p'
I-3
I-1
t(S't'
I1
I1
t(S'p'
I-2
I1
ttp10
I2
tp11
F1455.2885414940076
s(g6
I0
tp12
F-3.6399038490000004
s(((S'f'
I-1
I-1
t(S'p'
I-4
I-1
t(S'f'
I0
I-1
t(S't'
I0
I1
t(S'p'
I-2
I-1
t(S'p'
I-3
I1
ttp13
I1
tp14
F0
s(((S't'
I3
I2
t(S'p'
I0
I2
t(S'f'
I3
I0
t(S'p'
I1
I0
t(S'f'
I2
I0
t(S'p'
I-1
I0
ttp15
I2
tp16
F-2250
s(((S'f'
I5
I-2
t(S'p'
I3
I-2
t(S't'
I5
I0
t(S'p'
I2
I0
t(S'f'
I4
I-2
t(S'p'
I1
I-2
ttp17
I2
tp18
F-3.1425039000000003
s(((S'p'
I-1
I1
t(S'f'
I2
I-1
t(S'f'
I1
I-1
t(S'p'
I-2
I-1
t(S'p'
I0
I-1
t(S't'
I2
I1
ttp19
I1
tp20
F-2497.5
s(((S'f'
I5
I-1
t(S't'
I5
I1
t(S'p'
I3
I-1
t(S'f'
I4
I-1
t(S'p'
I2
I1
t(S'p'
I1
I-1
ttp21
I0
tp22
F-3.2036913899999999
s(g21
I2
tp23
F-3.1425039000000003
s(g2
I0
tp24
F-225
s(g4
I1
tp25
F1046.4448220291997
s(((S'f'
I2
I-1
t(S't'
I3
I1
t(S'p'
I1
I-1
t(S'f'
I3
I-1
t(S'p'
I-1
I-1
t(S'p'
I0
I1
ttp26
I0
tp27
F-2499.9974999999999
s(g8
I1
tp28
F-3.3242641577999996
s(g10
I3
tp29
F-225
s(g6
I3
tp30
F-2250
s(((S'f'
I2
I-2
t(S'f'
I1
I-2
t(S'p'
I-1
I0
t(S'p'
I-2
I-2
t(S'p'
I0
I-2
t(S't'
I2
I0
ttp31
I3
tp32
F1799
s(((S'p'
I2
I-1
t(S'p'
I1
I1
t(S't'
I4
I1
t(S'f'
I4
I-1
t(S'f'
I3
I-1
t(S'p'
I0
I-1
ttp33
I3
tp34
F-3.1810920569999999
s((S't'
I0
I0
tp35
I0
tp36
F0
s(g15
I3
tp37
F-2250
s(g17
I1
tp38
F-3.2556801707999998
s(g35
I3
tp39
F0
s(g13
I2
tp40
F0
s(g2
I1
tp41
F-675
s(g19
I2
tp42
F1177.6385610810003
s(g26
I1
tp43
F-3.3676417503900002
s(g17
I0
tp44
F-3.1425039000000003
s(g8
I0
tp45
F-3.1425039000000003
s(g35
I1
tp46
F0
s(g10
I0
tp47
F-0.98999999999999999
s(g6
I2
tp48
F-3.1425039000000003
s(g33
I2
tp49
F-3.0835449000000001
s(g4
I2
tp50
F1618.0999838099347
s(g31
I2
tp51
F-2499.75
s(g15
I0
tp52
F1177.6181414481002
s(g35
I2
tp53
F0
s(g31
I0
tp54
F1456.2
s(g19
I3
tp55
F1056.076166393917
s(g26
I2
tp56
F-3.1455198000000002
s(g13
I0
tp57
F1800
s(g10
I1
tp58
F-675
s(g33
I1
tp59
F-2250
s(g2
I2
tp60
F0
s(g4
I3
tp61
F2000
s(g13
I3
tp62
F0
s(g15
I1
tp63
F-3.1425039000000003
s(g8
I3
tp64
F-2250
s(g21
I1
tp65
F-3.1497412680000001
s(g31
I1
tp66
F1453.8324005098236
s(g17
I3
tp67
F-3.3588517499999999
s(g19
I0
tp68
F1618.1000000000001
s(g26
I3
tp69
F1455.2900000000002
s(g21
I3
tp70
F-3.1432263390000004
s(g33
I0
tp71
F-3.1425939000000001
s.