(dp1
(((S'p'
I-3
I0
t(S'f'
I0
I0
t(S'p'
I-2
I2
t(S't'
I1
I2
t(S'p'
I-1
I0
t(S'f'
I1
I0
ttp2
I3
tp3
F0
s(((S'f'
I5
I-1
t(S't'
I5
I1
t(S'p'
I3
I-1
t(S'f'
I4
I-1
t(S'p'
I2
I1
t(S'p'
I1
I-1
ttp4
I2
tp5
F-4.3213074795900015
s(((S'p'
I3
I0
t(S'f'
I4
I0
t(S'p'
I1
I0
t(S'f'
I5
I0
t(S't'
I5
I2
t(S'p'
I2
I2
ttp6
I1
tp7
F-3.7596785490000006
s(((S'p'
I2
I-2
t(S'f'
I4
I-2
t(S't'
I4
I0
t(S'p'
I1
I0
t(S'f'
I3
I-2
t(S'p'
I0
I-2
ttp8
I2
tp9
F-4.3274128870800013
s((S't'
I0
I0
tp10
I0
tp11
F0
s(g6
I0
tp12
F-3.9120481422180009
s(((S'f'
I2
I-2
t(S'f'
I1
I-2
t(S'p'
I-1
I0
t(S'p'
I-2
I-2
t(S'p'
I0
I-2
t(S't'
I2
I0
ttp13
I2
tp14
F-2475
s(((S't'
I3
I2
t(S'p'
I0
I2
t(S'f'
I3
I0
t(S'p'
I1
I0
t(S'f'
I2
I0
t(S'p'
I-1
I0
ttp15
I2
tp16
F-2250
s(((S'f'
I5
I-2
t(S'p'
I3
I-2
t(S't'
I5
I0
t(S'p'
I2
I0
t(S'f'
I4
I-2
t(S'p'
I1
I-2
ttp17
I2
tp18
F-4.3213074795900015
s(((S'p'
I-1
I1
t(S'f'
I2
I-1
t(S'f'
I1
I-1
t(S'p'
I-2
I-1
t(S'p'
I0
I-1
t(S't'
I2
I1
ttp19
I1
tp20
F-2499.75
s(g4
I0
tp21
F-3.8768089806000003
s(g2
I0
tp22
F-225.72900000000001
s(((S'f'
I1
I-2
t(S'f'
I0
I-2
t(S'p'
I-1
I-2
t(S'p'
I-3
I-2
t(S'p'
I-2
I0
t(S't'
I1
I0
ttp23
I1
tp24
F1323.7683300000001
s(((S'f'
I2
I-1
t(S't'
I3
I1
t(S'p'
I1
I-1
t(S'f'
I3
I-1
t(S'p'
I-1
I-1
t(S'p'
I0
I1
ttp25
I0
tp26
F-2497.5
s(g8
I1
tp27
F-3.9837720909294001
s(g10
I1
tp28
F0
s(g6
I3
tp29
F-2475
s(g13
I3
tp30
F1799
s(((S'p'
I2
I-1
t(S'p'
I1
I1
t(S't'
I4
I1
t(S'f'
I4
I-1
t(S'f'
I3
I-1
t(S'p'
I0
I-1
ttp31
I3
tp32
F1308.7478789855127
s(((S'f'
I1
I-1
t(S'f'
I0
I-1
t(S'p'
I-1
I-1
t(S'p'
I-3
I-1
t(S't'
I1
I1
t(S'p'
I-2
I1
ttp33
I2
tp34
F-1.629
s(g15
I3
tp35
F-2250
s(g17
I1
tp36
F-4.3264988939259013
s(g33
I3
tp37
F-247.5
s(g33
I1
tp38
F-742.5
s(((S'f'
I-1
I-1
t(S'p'
I-4
I-1
t(S'f'
I0
I-1
t(S't'
I0
I1
t(S'p'
I-2
I-1
t(S'p'
I-3
I1
ttp39
I2
tp40
F-225
s(g23
I2
tp41
F1617.9380271000002
s(g19
I2
tp42
F1307.4491503134811
s(g25
I1
tp43
F-3.7610664219000007
s(g8
I0
tp44
F-3.8213960139000003
s(g10
I2
tp45
F0
s(g6
I2
tp46
F-3.7596785490000006
s(g31
I2
tp47
F-3.9202897005000006
s(g4
I3
tp48
F952.53257903201006
s(g15
I0
tp49
F1177.5685460472002
s(g17
I0
tp50
F-4.3274792260800012
s(g13
I0
tp51
F-1.7190000000000001
s(g23
I0
tp52
F1798.8200099999999
s(g19
I3
tp53
F1369.063423134
s(g25
I2
tp54
F1176.3416981622349
s(g39
I0
tp55
F1800
s(g2
I1
tp56
F0
s(g10
I3
tp57
F0
s(g31
I1
tp58
F-2250
s(g2
I2
tp59
F-2250
s(g23
I3
tp60
F2000
s(g39
I3
tp61
F-225
s(g15
I1
tp62
F-3.7596785490000006
s(g8
I3
tp63
F-2250
s(g4
I1
tp64
F-4.2587029594737
s(g13
I1
tp65
F1453.8330081000001
s(g39
I1
tp66
F0
s(g17
I3
tp67
F-4.321995481359
s(g19
I0
tp68
F1618.1000000000001
s(g25
I3
tp69
F1455.2900000000002
s(g31
I0
tp70
F-4.2889850676594907
s(g33
I0
tp71
F1798.9998200099999
s.