(dp1
(((S'p'
I-3
I0
t(S'f'
I0
I0
t(S'p'
I-2
I2
t(S't'
I1
I2
t(S'p'
I-1
I0
t(S'f'
I1
I0
ttp2
I3
tp3
F0
s(((S'f'
I5
I-1
t(S't'
I5
I1
t(S'p'
I3
I-1
t(S'f'
I4
I-1
t(S'p'
I2
I1
t(S'p'
I1
I-1
ttp4
I2
tp5
F-3.1425039000000003
s(((S'p'
I3
I0
t(S'f'
I4
I0
t(S'p'
I1
I0
t(S'f'
I5
I0
t(S't'
I5
I2
t(S'p'
I2
I2
ttp6
I1
tp7
F-3.7596785490000006
s(((S'p'
I2
I-2
t(S'f'
I4
I-2
t(S't'
I4
I0
t(S'p'
I1
I0
t(S'f'
I3
I-2
t(S'p'
I0
I-2
ttp8
I2
tp9
F-3.1558617
s((S't'
I0
I0
tp10
I0
tp11
F0
s(g6
I0
tp12
F-3.7609324290000004
s(((S'f'
I2
I-2
t(S'f'
I1
I-2
t(S'p'
I-1
I0
t(S'p'
I-2
I-2
t(S'p'
I0
I-2
t(S't'
I2
I0
ttp13
I2
tp14
F-2497.5
s(g8
I0
tp15
F-3.1425039000000003
s(((S't'
I3
I2
t(S'p'
I0
I2
t(S'f'
I3
I0
t(S'p'
I1
I0
t(S'f'
I2
I0
t(S'p'
I-1
I0
ttp16
I2
tp17
F-2250
s(((S'f'
I5
I-2
t(S'p'
I3
I-2
t(S't'
I5
I0
t(S'p'
I2
I0
t(S'f'
I4
I-2
t(S'p'
I1
I-2
ttp18
I2
tp19
F-3.1425039000000003
s(((S'p'
I-1
I1
t(S'f'
I2
I-1
t(S'f'
I1
I-1
t(S'p'
I-2
I-1
t(S'p'
I0
I-1
t(S't'
I2
I1
ttp20
I1
tp21
F-2497.5
s(g4
I0
tp22
F-3.1425039000000003
s(g2
I0
tp23
F-225
s(((S'f'
I1
I-2
t(S'f'
I0
I-2
t(S'p'
I-1
I-2
t(S'p'
I-3
I-2
t(S'p'
I-2
I0
t(S't'
I1
I0
ttp24
I1
tp25
F0
s(((S'f'
I2
I-1
t(S't'
I3
I1
t(S'p'
I1
I-1
t(S'f'
I3
I-1
t(S'p'
I-1
I-1
t(S'p'
I0
I1
ttp26
I0
tp27
F-2497.5
s(g8
I1
tp28
F-3.1563621900000003
s(g10
I1
tp29
F0
s(g6
I3
tp30
F-2250
s(g13
I3
tp31
F1799
s(((S'p'
I2
I-1
t(S'p'
I1
I1
t(S't'
I4
I1
t(S'f'
I4
I-1
t(S'f'
I3
I-1
t(S'p'
I0
I-1
ttp32
I3
tp33
F1308.6265796994498
s(((S'f'
I1
I-1
t(S'f'
I0
I-1
t(S'p'
I-1
I-1
t(S'p'
I-3
I-1
t(S't'
I1
I1
t(S'p'
I-2
I1
ttp34
I2
tp35
F-0.90000000000000002
s(g16
I3
tp36
F-2475
s(g18
I1
tp37
F-3.6457212690000005
s(g34
I3
tp38
F-225
s(g10
I3
tp39
F0
s(((S'f'
I-1
I-1
t(S'p'
I-4
I-1
t(S'f'
I0
I-1
t(S't'
I0
I1
t(S'p'
I-2
I-1
t(S'p'
I-3
I1
ttp40
I2
tp41
F-225
s(g2
I1
tp42
F0
s(g20
I2
tp43
F1308.7478822584326
s(g26
I1
tp44
F1172.5178791238427
s(g34
I0
tp45
F1781.01
s(g10
I2
tp46
F0
s(g6
I2
tp47
F-3.1425039000000003
s(g32
I2
tp48
F-3.2513825700000001
s(g4
I3
tp49
F-3.84503580306
s(g16
I0
tp50
F1307.4495723800103
s(g18
I0
tp51
F-3.1425039000000003
s(g18
I3
tp52
F-3.1425039000000003
s(g13
I0
tp53
F1617.9380181000001
s(g24
I0
tp54
F1798.8200099983801
s(g20
I3
tp55
F1061.721
s(g26
I2
tp56
F1172.4379971153594
s(g40
I0
tp57
F0
s(g34
I1
tp58
F-675
s(g32
I1
tp59
F-2250
s(g2
I2
tp60
F0
s(g24
I3
tp61
F2000
s(g40
I3
tp62
F0
s(g16
I1
tp63
F-3.1425039000000003
s(g8
I3
tp64
F-2250
s(g4
I1
tp65
F-3.7530536490000008
s(g13
I1
tp66
F1453.8330081000001
s(g24
I2
tp67
F1618.0838019810083
s(g40
I1
tp68
F0
s(g20
I0
tp69
F1618.1000000000001
s(g26
I3
tp70
F1455.2900000000002
s(g32
I0
tp71
F-3.3067226700000001
s.