(dp1
(((S'p'
I-3
I0
t(S'f'
I0
I0
t(S'p'
I-2
I2
t(S't'
I1
I2
t(S'p'
I-1
I0
t(S'f'
I1
I0
ttp2
I3
tp3
F-675
s(((S'f'
I1
I-2
t(S'f'
I0
I-2
t(S'p'
I-1
I-2
t(S'p'
I-3
I-2
t(S'p'
I-2
I0
t(S't'
I1
I0
ttp4
I0
tp5
F1797.2001
s(((S'p'
I2
I-2
t(S'f'
I4
I-2
t(S't'
I4
I0
t(S'p'
I1
I0
t(S'f'
I3
I-2
t(S'p'
I0
I-2
ttp6
I2
tp7
F-4.3269336901800015
s((S't'
I0
I0
tp8
I0
tp9
F0
s(((S'p'
I3
I0
t(S'f'
I4
I0
t(S'p'
I1
I0
t(S'f'
I5
I0
t(S't'
I5
I2
t(S'p'
I2
I2
ttp10
I0
tp11
F-4.2215580961200008
s(((S'f'
I-1
I-1
t(S'p'
I-4
I-1
t(S'f'
I0
I-1
t(S't'
I0
I1
t(S'p'
I-2
I-1
t(S'p'
I-3
I1
ttp12
I1
tp13
F-675
s(((S't'
I3
I2
t(S'p'
I0
I2
t(S'f'
I3
I0
t(S'p'
I1
I0
t(S'f'
I2
I0
t(S'p'
I-1
I0
ttp14
I2
tp15
F-2250
s(((S'f'
I5
I-2
t(S'p'
I3
I-2
t(S't'
I5
I0
t(S'p'
I2
I0
t(S'f'
I4
I-2
t(S'p'
I1
I-2
ttp16
I2
tp17
F-4.3213074795900015
s(((S'p'
I-1
I1
t(S'f'
I2
I-1
t(S'f'
I1
I-1
t(S'p'
I-2
I-1
t(S'p'
I0
I-1
t(S't'
I2
I1
ttp18
I1
tp19
F-2499.9749999999999
s(((S'f'
I5
I-1
t(S't'
I5
I1
t(S'p'
I3
I-1
t(S'f'
I4
I-1
t(S'p'
I2
I1
t(S'p'
I1
I-1
ttp20
I1
tp21
F-3.7657252980000004
s(g20
I0
tp22
F-4.2548889456900003
s(((S'f'
I0
I0
t(S'p'
I-4
I0
t(S'f'
I-1
I0
t(S'p'
I-3
I2
t(S't'
I0
I2
t(S'p'
I-2
I0
ttp23
I1
tp24
F0
s(g2
I0
tp25
F0
s(g4
I1
tp26
F1044.3308181159437
s(((S'f'
I2
I-1
t(S't'
I3
I1
t(S'p'
I1
I-1
t(S'f'
I3
I-1
t(S'p'
I-1
I-1
t(S'p'
I0
I1
ttp27
I0
tp28
F-2499.9749999999999
s(g6
I1
tp29
F-3.9434628816270001
s(g8
I1
tp30
F0
s(g10
I3
tp31
F-2250
s(((S'f'
I2
I-2
t(S'f'
I1
I-2
t(S'p'
I-1
I0
t(S'p'
I-2
I-2
t(S'p'
I0
I-2
t(S't'
I2
I0
ttp32
I3
tp33
F1799
s(((S'p'
I2
I-1
t(S'p'
I1
I1
t(S't'
I4
I1
t(S'f'
I4
I-1
t(S'f'
I3
I-1
t(S'p'
I0
I-1
ttp34
I3
tp35
F1295.6394553618295
s(((S'f'
I1
I-1
t(S'f'
I0
I-1
t(S'p'
I-1
I-1
t(S'p'
I-3
I-1
t(S't'
I1
I1
t(S'p'
I-2
I1
ttp36
I2
tp37
F1455.2754470871357
s(g14
I3
tp38
F-2250
s(g16
I1
tp39
F-3.8726467040700001
s(g36
I3
tp40
F-225
s(g36
I1
tp41
F-675
s(g12
I2
tp42
F0
s(g23
I2
tp43
F-675
s(g4
I2
tp44
F1574.208008099999
s(g18
I2
tp45
F1308.6298644325202
s(g27
I1
tp46
F952.56350705466014
s(g6
I0
tp47
F-4.3213074795900015
s(g18
I0
tp48
F1618.1000000000001
s(g8
I2
tp49
F0
s(g10
I2
tp50
F-3.7596785490000006
s(g34
I2
tp51
F-3.6884578590000006
s(g20
I3
tp52
F-3.8541198105900003
s(g32
I2
tp53
F-2499.75
s(g14
I0
tp54
F1295.6424079743001
s(g16
I0
tp55
F-4.3213074795900015
s(g32
I0
tp56
F1616.4801810000001
s(g23
I3
tp57
F0
s(g18
I3
tp58
F1035.0076519855149
s(g27
I2
tp59
F1143.8187336481883
s(g12
I0
tp60
F1800
s(g2
I1
tp61
F-675
s(g8
I3
tp62
F0
s(g34
I1
tp63
F-2475
s(g2
I2
tp64
F-2250
s(g4
I3
tp65
F2000
s(g12
I3
tp66
F0
s(g14
I1
tp67
F-3.1425039000000003
s(g6
I3
tp68
F-2475
s(g10
I1
tp69
F-3.7596785490000006
s(g32
I1
tp70
F1453.8321065941741
s(g16
I3
tp71
F-4.3206440895900009
s(g34
I0
tp72
F-4.4448904691199003
s(g27
I3
tp73
F1455.2900000000002
s(g23
I0
tp74
F-225
s(g20
I2
tp75
F-3.7596785490000006
s(g36
I0
tp76
F0
s.