(dp1
(((S'p'
I-3
I0
t(S'f'
I0
I0
t(S'p'
I-2
I2
t(S't'
I1
I2
t(S'p'
I-1
I0
t(S'f'
I1
I0
ttp2
I3
tp3
F0
s(((S'f'
I5
I-1
t(S't'
I5
I1
t(S'p'
I3
I-1
t(S'f'
I4
I-1
t(S'p'
I2
I1
t(S'p'
I1
I-1
ttp4
I2
tp5
F-3.7596785490000006
s(((S'p'
I3
I0
t(S'f'
I4
I0
t(S'p'
I1
I0
t(S'f'
I5
I0
t(S't'
I5
I2
t(S'p'
I2
I2
ttp6
I1
tp7
F-3.7596785490000006
s(((S'p'
I2
I-2
t(S'f'
I4
I-2
t(S't'
I4
I0
t(S'p'
I1
I0
t(S'f'
I3
I-2
t(S'p'
I0
I-2
ttp8
I2
tp9
F-4.2466949856900005
s((S't'
I0
I0
tp10
I0
tp11
F0
s(g6
I0
tp12
F-3.7598316390000006
s(((S'f'
I-1
I-1
t(S'p'
I-4
I-1
t(S'f'
I0
I-1
t(S't'
I0
I1
t(S'p'
I-2
I-1
t(S'p'
I-3
I1
ttp13
I1
tp14
F0
s(((S't'
I3
I2
t(S'p'
I0
I2
t(S'f'
I3
I0
t(S'p'
I1
I0
t(S'f'
I2
I0
t(S'p'
I-1
I0
ttp15
I2
tp16
F-2250
s(((S'f'
I5
I-2
t(S'p'
I3
I-2
t(S't'
I5
I0
t(S'p'
I2
I0
t(S'f'
I4
I-2
t(S'p'
I1
I-2
ttp17
I2
tp18
F-3.7596785490000006
s(((S'p'
I-1
I1
t(S'f'
I2
I-1
t(S'f'
I1
I-1
t(S'p'
I-2
I-1
t(S'p'
I0
I-1
t(S't'
I2
I1
ttp19
I1
tp20
F-2499.9999750000002
s(g4
I0
tp21
F-3.7596785490000006
s(g2
I0
tp22
F1353.806090985566
s(((S'f'
I1
I-2
t(S'f'
I0
I-2
t(S'p'
I-1
I-2
t(S'p'
I-3
I-2
t(S'p'
I-2
I0
t(S't'
I1
I0
ttp23
I1
tp24
F1367.3347666186614
s(((S'f'
I2
I-1
t(S't'
I3
I1
t(S'p'
I1
I-1
t(S'f'
I3
I-1
t(S'p'
I-1
I-1
t(S'p'
I0
I1
ttp25
I0
tp26
F-2499.75
s(g8
I1
tp27
F952.62728198380228
s(g10
I1
tp28
F0
s(g6
I3
tp29
F-2250
s(((S'f'
I2
I-2
t(S'f'
I1
I-2
t(S'p'
I-1
I0
t(S'p'
I-2
I-2
t(S'p'
I0
I-2
t(S't'
I2
I0
ttp30
I3
tp31
F1799
s(((S'p'
I2
I-1
t(S'p'
I1
I1
t(S't'
I4
I1
t(S'f'
I4
I-1
t(S'f'
I3
I-1
t(S'p'
I0
I-1
ttp32
I3
tp33
F1308.6298533090223
s(((S'f'
I1
I-1
t(S'f'
I0
I-1
t(S'p'
I-1
I-1
t(S'p'
I-3
I-1
t(S't'
I1
I1
t(S'p'
I-2
I1
ttp34
I2
tp35
F-0.90000000000000002
s(g15
I3
tp36
F-2250
s(g17
I1
tp37
F-3.9125887452900003
s(g34
I3
tp38
F-225
s(g34
I1
tp39
F247.64357608937144
s(g13
I2
tp40
F-225
s(g23
I2
tp41
F1618.0999838180669
s(g19
I2
tp42
F1177.5772204200002
s(g25
I1
tp43
F1176.3417544276301
s(g8
I0
tp44
F-3.7596785490000006
s(g10
I2
tp45
F0
s(g6
I2
tp46
F-3.7596785490000006
s(g32
I2
tp47
F-3.20223339
s(g4
I3
tp48
F-3.4095495446999999
s(g30
I2
tp49
F-2499.75
s(g15
I0
tp50
F1308.7478802125456
s(g17
I0
tp51
F-3.7596785490000006
s(g30
I0
tp52
F1601.9008768808101
s(g23
I0
tp53
F1781.01
s(g19
I3
tp54
F1368.7655814794241
s(g25
I2
tp55
F1172.5177280273547
s(g13
I0
tp56
F0
s(g2
I1
tp57
F0
s(g10
I3
tp58
F0
s(g32
I1
tp59
F-2250
s(g2
I2
tp60
F-2250
s(g23
I3
tp61
F2000
s(g13
I3
tp62
F0
s(g15
I1
tp63
F-3.7596785490000006
s(g8
I3
tp64
F-2250
s(g4
I1
tp65
F-3.7589585490000008
s(g30
I1
tp66
F1455.1442246691001
s(g17
I3
tp67
F-3.7596785490000006
s(g19
I0
tp68
F1618.1000000000001
s(g25
I3
tp69
F1455.2900000000002
s(g32
I0
tp70
F-4.0347629123580004
s(g34
I0
tp71
F1798.9999820099999
s.