(dp1
(((S'p'
I-3
I0
t(S'f'
I0
I0
t(S'p'
I-2
I2
t(S't'
I1
I2
t(S'p'
I-1
I0
t(S'f'
I1
I0
ttp2
I3
tp3
F-675
s(((S'f'
I1
I-2
t(S'f'
I0
I-2
t(S'p'
I-1
I-2
t(S'p'
I-3
I-2
t(S'p'
I-2
I0
t(S't'
I1
I0
ttp4
I0
tp5
F1781.001
s(((S'p'
I3
I0
t(S'f'
I4
I0
t(S'p'
I1
I0
t(S'f'
I5
I0
t(S't'
I5
I2
t(S'p'
I2
I2
ttp6
I1
tp7
F-3.7596785490000006
s(((S'p'
I2
I-2
t(S'f'
I4
I-2
t(S't'
I4
I0
t(S'p'
I1
I0
t(S'f'
I3
I-2
t(S'p'
I0
I-2
ttp8
I2
tp9
F-3.1432329000000001
s((S't'
I0
I0
tp10
I0
tp11
F0
s(g6
I0
tp12
F-3.8815729227000002
s(((S'f'
I2
I-2
t(S'f'
I1
I-2
t(S'p'
I-1
I0
t(S'p'
I-2
I-2
t(S'p'
I0
I-2
t(S't'
I2
I0
ttp13
I2
tp14
F-2499.9999750000002
s(g8
I0
tp15
F-3.1425039000000003
s(((S't'
I3
I2
t(S'p'
I0
I2
t(S'f'
I3
I0
t(S'p'
I1
I0
t(S'f'
I2
I0
t(S'p'
I-1
I0
ttp16
I2
tp17
F-2250
s(((S'f'
I5
I-2
t(S'p'
I3
I-2
t(S't'
I5
I0
t(S'p'
I2
I0
t(S'f'
I4
I-2
t(S'p'
I1
I-2
ttp18
I2
tp19
F-3.7596785490000006
s(((S'p'
I-1
I1
t(S'f'
I2
I-1
t(S'f'
I1
I-1
t(S'p'
I-2
I-1
t(S'p'
I0
I-1
t(S't'
I2
I1
ttp20
I1
tp21
F-2499.9999750000002
s(((S'f'
I2
I-1
t(S't'
I3
I1
t(S'p'
I1
I-1
t(S'f'
I3
I-1
t(S'p'
I-1
I-1
t(S'p'
I0
I1
ttp22
I2
tp23
F952.60019647842034
s(((S'f'
I5
I-1
t(S't'
I5
I1
t(S'p'
I3
I-1
t(S'f'
I4
I-1
t(S'p'
I2
I1
t(S'p'
I1
I-1
ttp24
I0
tp25
F-3.7671240780000006
s(g24
I2
tp26
F-3.7596785490000006
s(((S'f'
I0
I0
t(S'p'
I-4
I0
t(S'f'
I-1
I0
t(S'p'
I-3
I2
t(S't'
I0
I2
t(S'p'
I-2
I0
ttp27
I1
tp28
F-675
s(g2
I0
tp29
F-225
s(g4
I1
tp30
F1058.4514692081
s(g22
I0
tp31
F-2499.9749999999999
s(g8
I1
tp32
F-3.8756805614999998
s(g10
I1
tp33
F0
s(g6
I3
tp34
F-2250
s(g13
I3
tp35
F1799
s(((S'p'
I2
I-1
t(S'p'
I1
I1
t(S't'
I4
I1
t(S'f'
I4
I-1
t(S'f'
I3
I-1
t(S'p'
I0
I-1
ttp36
I3
tp37
F1295.6412951162001
s(((S'f'
I1
I-1
t(S'f'
I0
I-1
t(S'p'
I-1
I-1
t(S'p'
I-3
I-1
t(S't'
I1
I1
t(S'p'
I-2
I1
ttp38
I2
tp39
F1455.2898543810002
s(g16
I3
tp40
F-2250
s(g18
I1
tp41
F-4.1849718345899998
s(g18
I3
tp42
F-3.6709724439000002
s(g10
I3
tp43
F0
s(((S'f'
I-1
I-1
t(S'p'
I-4
I-1
t(S'f'
I0
I-1
t(S't'
I0
I1
t(S'p'
I-2
I-1
t(S'p'
I-3
I1
ttp44
I2
tp45
F-225
s(g27
I2
tp46
F-675
s(g2
I1
tp47
F0
s(g20
I2
tp48
F1307.448725858847
s(g22
I1
tp49
F1176.8199540852879
s(g38
I0
tp50
F-0.90000000000000002
s(g10
I2
tp51
F0
s(g6
I2
tp52
F-4.311586892259001
s(g36
I2
tp53
F-3.7138228307999999
s(g4
I2
tp54
F1617.9381000000001
s(g16
I0
tp55
F1308.7596879296048
s(g18
I0
tp56
F-3.8213960139000003
s(g13
I0
tp57
F1601.9009910000002
s(g27
I3
tp58
F0
s(g20
I3
tp59
F1056.0821870609791
s(g38
I3
tp60
F-225
s(g44
I0
tp61
F0
s(g38
I1
tp62
F-675
s(g36
I1
tp63
F-2475
s(g2
I2
tp64
F0
s(g4
I3
tp65
F2000
s(g44
I3
tp66
F-225
s(g16
I1
tp67
F-3.8213960139000003
s(g8
I3
tp68
F-2250
s(g24
I1
tp69
F-3.7656780588000007
s(g13
I1
tp70
F1453.8330081000001
s(g44
I1
tp71
F-675
s(g20
I0
tp72
F1618.1000000000001
s(g22
I3
tp73
F1455.2900000000002
s(g24
I3
tp74
F952.56146238732026
s(g36
I0
tp75
F-3.7603509390000007
s(g27
I0
tp76
F-225
s.