(dp1
(((S'p'
I-3
I0
t(S'f'
I0
I0
t(S'p'
I-2
I2
t(S't'
I1
I2
t(S'p'
I-1
I0
t(S'f'
I1
I0
ttp2
I3
tp3
F-675
s(((S'f'
I1
I-2
t(S'f'
I0
I-2
t(S'p'
I-1
I-2
t(S'p'
I-3
I-2
t(S'p'
I-2
I0
t(S't'
I1
I0
ttp4
I0
tp5
F1798.820009999838
s(((S'p'
I3
I0
t(S'f'
I4
I0
t(S'p'
I1
I0
t(S'f'
I5
I0
t(S't'
I5
I2
t(S'p'
I2
I2
ttp6
I1
tp7
F-3.1425039000000003
s(((S'p'
I2
I-2
t(S'f'
I4
I-2
t(S't'
I4
I0
t(S'p'
I1
I0
t(S'f'
I3
I-2
t(S'p'
I0
I-2
ttp8
I2
tp9
F-3.1432329000000001
s(((S'f'
I1
I-1
t(S'f'
I0
I-1
t(S'p'
I-1
I-1
t(S'p'
I-3
I-1
t(S't'
I1
I1
t(S'p'
I-2
I1
ttp10
I2
tp11
F1455.2899459041084
s(g6
I0
tp12
F-3.20936778
s(((S'f'
I2
I-2
t(S'f'
I1
I-2
t(S'p'
I-1
I0
t(S'p'
I-2
I-2
t(S'p'
I0
I-2
t(S't'
I2
I0
ttp13
I2
tp14
F-2497.5
s(((S't'
I3
I2
t(S'p'
I0
I2
t(S'f'
I3
I0
t(S'p'
I1
I0
t(S'f'
I2
I0
t(S'p'
I-1
I0
ttp15
I2
tp16
F-2250
s(((S'f'
I5
I-2
t(S'p'
I3
I-2
t(S't'
I5
I0
t(S'p'
I2
I0
t(S'f'
I4
I-2
t(S'p'
I1
I-2
ttp17
I2
tp18
F-3.1425039000000003
s(((S'p'
I-1
I1
t(S'f'
I2
I-1
t(S'f'
I1
I-1
t(S'p'
I-2
I-1
t(S'p'
I0
I-1
t(S't'
I2
I1
ttp19
I1
tp20
F-2475
s(((S'f'
I5
I-1
t(S't'
I5
I1
t(S'p'
I3
I-1
t(S'f'
I4
I-1
t(S'p'
I2
I1
t(S'p'
I1
I-1
ttp21
I0
tp22
F-3.03762519
s(g21
I2
tp23
F-3.1425039000000003
s(((S'f'
I0
I0
t(S'p'
I-4
I0
t(S'f'
I-1
I0
t(S'p'
I-3
I2
t(S't'
I0
I2
t(S'p'
I-2
I0
ttp24
I1
tp25
F-675
s(g2
I0
tp26
F-225
s(g4
I1
tp27
F1192.3688385290998
s(((S'f'
I2
I-1
t(S't'
I3
I1
t(S'p'
I1
I-1
t(S'f'
I3
I-1
t(S'p'
I-1
I-1
t(S'p'
I0
I1
ttp28
I0
tp29
F-2499.9749999999999
s(g8
I1
tp30
F-3.7179374256000002
s(g10
I3
tp31
F-225
s(g6
I3
tp32
F-2250
s(g13
I3
tp33
F1799
s(((S'p'
I2
I-1
t(S'p'
I1
I1
t(S't'
I4
I1
t(S'f'
I4
I-1
t(S'f'
I3
I-1
t(S'p'
I0
I-1
ttp34
I3
tp35
F1308.6298140717242
s((S't'
I0
I0
tp36
I0
tp37
F0
s(g15
I3
tp38
F-2250
s(g17
I1
tp39
F-3.2581747359
s(g36
I3
tp40
F0
s(((S'f'
I-1
I-1
t(S'p'
I-4
I-1
t(S'f'
I0
I-1
t(S't'
I0
I1
t(S'p'
I-2
I-1
t(S'p'
I-3
I1
ttp41
I2
tp42
F0
s(g24
I2
tp43
F-675
s(g2
I1
tp44
F0
s(g19
I2
tp45
F1295.6475751281002
s(g28
I1
tp46
F952.64262208584012
s(g17
I0
tp47
F-3.1425039000000003
s(g8
I0
tp48
F-3.1425039000000003
s(g36
I1
tp49
F0
s(g10
I0
tp50
F1781.001
s(g6
I2
tp51
F-3.1425039000000003
s(g34
I2
tp52
F-3.1425939000000001
s(g4
I2
tp53
F1618.0998380180999
s(g15
I0
tp54
F1295.6472551682002
s(g36
I2
tp55
F0
s(g13
I0
tp56
F1617.9380181000001
s(g24
I3
tp57
F-675
s(g19
I3
tp58
F1057.1579686819607
s(g28
I2
tp59
F1172.5168483944435
s(g41
I0
tp60
F1800
s(g10
I1
tp61
F-675
s(g34
I1
tp62
F-2250
s(g2
I2
tp63
F0
s(g4
I3
tp64
F2000
s(g41
I3
tp65
F-225
s(g15
I1
tp66
F-3.1425039000000003
s(g8
I3
tp67
F-2250
s(g21
I1
tp68
F-3.1425939000000001
s(g13
I1
tp69
F1453.8328452000001
s(g41
I1
tp70
F-675
s(g17
I3
tp71
F-3.1279238999999999
s(g19
I0
tp72
F1618.1000000000001
s(g28
I3
tp73
F1455.2900000000002
s(g21
I3
tp74
F-3.2174327069999999
s(g34
I0
tp75
F-3.6624226590000006
s(g24
I0
tp76
F-225
s.