(dp1
(((S'p'
I-3
I0
t(S'f'
I0
I0
t(S'p'
I-2
I2
t(S't'
I1
I2
t(S'p'
I-1
I0
t(S'f'
I1
I0
ttp2
I3
tp3
F-675
s(((S'f'
I1
I-2
t(S'f'
I0
I-2
t(S'p'
I-1
I-2
t(S'p'
I-3
I-2
t(S'p'
I-2
I0
t(S't'
I1
I0
ttp4
I0
tp5
F1797.2000983800001
s(((S'p'
I3
I0
t(S'f'
I4
I0
t(S'p'
I1
I0
t(S'f'
I5
I0
t(S't'
I5
I2
t(S'p'
I2
I2
ttp6
I1
tp7
F-3.8219865039000003
s(((S'p'
I2
I-2
t(S'f'
I4
I-2
t(S't'
I4
I0
t(S'p'
I1
I0
t(S'f'
I3
I-2
t(S'p'
I0
I-2
ttp8
I2
tp9
F-3.7596875490000006
s((S't'
I0
I0
tp10
I0
tp11
F0
s(g6
I0
tp12
F-3.7597514490000004
s(((S'f'
I2
I-2
t(S'f'
I1
I-2
t(S'p'
I-1
I0
t(S'p'
I-2
I-2
t(S'p'
I0
I-2
t(S't'
I2
I0
ttp13
I2
tp14
F-2499.9974999999999
s(((S't'
I3
I2
t(S'p'
I0
I2
t(S'f'
I3
I0
t(S'p'
I1
I0
t(S'f'
I2
I0
t(S'p'
I-1
I0
ttp15
I2
tp16
F-2250
s(((S'f'
I5
I-2
t(S'p'
I3
I-2
t(S't'
I5
I0
t(S'p'
I2
I0
t(S'f'
I4
I-2
t(S'p'
I1
I-2
ttp17
I2
tp18
F-4.3145213382189
s(((S'p'
I-1
I1
t(S'f'
I2
I-1
t(S'f'
I1
I-1
t(S'p'
I-2
I-1
t(S'p'
I0
I-1
t(S't'
I2
I1
ttp19
I1
tp20
F-2497.5
s(((S'f'
I5
I-1
t(S't'
I5
I1
t(S'p'
I3
I-1
t(S'f'
I4
I-1
t(S'p'
I2
I1
t(S'p'
I1
I-1
ttp21
I0
tp22
F-4.2546755769399001
s(g21
I2
tp23
F-3.7596785490000006
s(((S'f'
I0
I0
t(S'p'
I-4
I0
t(S'f'
I-1
I0
t(S'p'
I-3
I2
t(S't'
I0
I2
t(S'p'
I-2
I0
ttp24
I1
tp25
F-675
s(g2
I0
tp26
F0
s(g4
I1
tp27
F1208.2320810000001
s(((S'f'
I2
I-1
t(S't'
I3
I1
t(S'p'
I1
I-1
t(S'f'
I3
I-1
t(S'p'
I-1
I-1
t(S'p'
I0
I1
ttp28
I0
tp29
F-2499.9997499999999
s(g8
I1
tp30
F-3.933087507459001
s(g10
I1
tp31
F0
s(g6
I3
tp32
F-2250
s(g13
I3
tp33
F1799
s(((S'p'
I2
I-1
t(S'p'
I1
I1
t(S't'
I4
I1
t(S'f'
I4
I-1
t(S'f'
I3
I-1
t(S'p'
I0
I-1
ttp34
I3
tp35
F1307.4489033019463
s(((S'f'
I1
I-1
t(S'f'
I0
I-1
t(S'p'
I-1
I-1
t(S'p'
I-3
I-1
t(S't'
I1
I1
t(S'p'
I-2
I1
ttp36
I2
tp37
F1309.7609994902764
s(g15
I3
tp38
F-2250
s(g17
I1
tp39
F-3.7663846678800001
s(g36
I3
tp40
F0
s(g36
I1
tp41
F-675
s(g24
I2
tp42
F-675
s(g2
I1
tp43
F-675
s(g19
I2
tp44
F1308.7478876830867
s(g28
I1
tp45
F1172.5162579340581
s(g8
I0
tp46
F-3.7596785490000006
s(g10
I2
tp47
F0
s(g6
I2
tp48
F-3.7596785490000006
s(g34
I2
tp49
F-3.7789914106800002
s(g4
I2
tp50
F1456.1999985420009
s(g15
I0
tp51
F1308.6298069654322
s(g17
I0
tp52
F-3.7596785490000006
s(g13
I0
tp53
F1618.0999838001803
s(g24
I3
tp54
F0
s(g19
I3
tp55
F1368.7234634609588
s(g28
I2
tp56
F1143.8210273669893
s(g10
I3
tp57
F0
s(g34
I1
tp58
F-2250
s(g2
I2
tp59
F-2250
s(g4
I3
tp60
F2000
s(g15
I1
tp61
F-3.7596785490000006
s(g8
I3
tp62
F-2250
s(g21
I1
tp63
F-3.7589585490000008
s(g13
I1
tp64
F1440.7111959300003
s(g17
I3
tp65
F-3.9583505028600006
s(g19
I0
tp66
F1618.1000000000001
s(g28
I3
tp67
F1455.2900000000002
s(g21
I3
tp68
F-3.7921011228900001
s(g24
I0
tp69
F0
s(g34
I0
tp70
F-3.7596875490000006
s(g36
I0
tp71
F1798.9982001000001
s.