(dp1
(((S'p'
I-3
I0
t(S'f'
I0
I0
t(S'p'
I-2
I2
t(S't'
I1
I2
t(S'p'
I-1
I0
t(S'f'
I1
I0
ttp2
I3
tp3
F0
s(((S'f'
I5
I-1
t(S't'
I5
I1
t(S'p'
I3
I-1
t(S'f'
I4
I-1
t(S'p'
I2
I1
t(S'p'
I1
I-1
ttp4
I2
tp5
F-3.7596785490000006
s(((S'p'
I3
I0
t(S'f'
I4
I0
t(S'p'
I1
I0
t(S'f'
I5
I0
t(S't'
I5
I2
t(S'p'
I2
I2
ttp6
I1
tp7
F-3.8763313398000001
s(((S'p'
I2
I-2
t(S'f'
I4
I-2
t(S't'
I4
I0
t(S'p'
I1
I0
t(S'f'
I3
I-2
t(S'p'
I0
I-2
ttp8
I2
tp9
F-3.7596785490000006
s((S't'
I0
I0
tp10
I0
tp11
F0
s(g6
I0
tp12
F-3.7857932389800002
s(((S'f'
I2
I-2
t(S'f'
I1
I-2
t(S'p'
I-1
I0
t(S'p'
I-2
I-2
t(S'p'
I0
I-2
t(S't'
I2
I0
ttp13
I2
tp14
F-2497.5
s(g8
I0
tp15
F-3.2103252900000001
s(((S't'
I3
I2
t(S'p'
I0
I2
t(S'f'
I3
I0
t(S'p'
I1
I0
t(S'f'
I2
I0
t(S'p'
I-1
I0
ttp16
I2
tp17
F-2250
s(((S'f'
I5
I-2
t(S'p'
I3
I-2
t(S't'
I5
I0
t(S'p'
I2
I0
t(S'f'
I4
I-2
t(S'p'
I1
I-2
ttp18
I2
tp19
F-3.7428350768999996
s(((S'p'
I-1
I1
t(S'f'
I2
I-1
t(S'f'
I1
I-1
t(S'p'
I-2
I-1
t(S'p'
I0
I-1
t(S't'
I2
I1
ttp20
I1
tp21
F-2499.9999975000001
s(((S'p'
I2
I-1
t(S'p'
I1
I1
t(S't'
I4
I1
t(S'f'
I4
I-1
t(S'f'
I3
I-1
t(S'p'
I0
I-1
ttp22
I2
tp23
F-3.6644158179000001
s(((S'f'
I0
I0
t(S'p'
I-4
I0
t(S'f'
I-1
I0
t(S'p'
I-3
I2
t(S't'
I0
I2
t(S'p'
I-2
I0
ttp24
I1
tp25
F0
s(g2
I0
tp26
F0
s(((S'f'
I1
I-2
t(S'f'
I0
I-2
t(S'p'
I-1
I-2
t(S'p'
I-3
I-2
t(S'p'
I-2
I0
t(S't'
I1
I0
ttp27
I1
tp28
F1059.7488397665711
s(((S'f'
I2
I-1
t(S't'
I3
I1
t(S'p'
I1
I-1
t(S'f'
I3
I-1
t(S'p'
I-1
I-1
t(S'p'
I0
I1
ttp29
I0
tp30
F-2499.75
s(g8
I1
tp31
F-3.911397367068
s(g10
I1
tp32
F0
s(g6
I3
tp33
F-2250
s(g13
I3
tp34
F1799
s(g4
I1
tp35
F-3.7596875490000006
s(((S'f'
I1
I-1
t(S'f'
I0
I-1
t(S'p'
I-1
I-1
t(S'p'
I-3
I-1
t(S't'
I1
I1
t(S'p'
I-2
I1
ttp36
I2
tp37
F1455.2899397121923
s(g16
I3
tp38
F-2250
s(g18
I1
tp39
F-3.7644615180000005
s(g36
I3
tp40
F0
s(g36
I1
tp41
F0
s(((S'f'
I-1
I-1
t(S'p'
I-4
I-1
t(S'f'
I0
I-1
t(S't'
I0
I1
t(S'p'
I-2
I-1
t(S'p'
I-3
I1
ttp42
I2
tp43
F0
s(g24
I2
tp44
F0
s(g27
I2
tp45
F1601.9099999999921
s(g20
I2
tp46
F1307.4496494938087
s(g29
I1
tp47
F-3.7589594490000007
s(g36
I0
tp48
F1619.01
s(g10
I2
tp49
F0
s(g6
I2
tp50
F-3.8213960139000003
s(g4
I0
tp51
F-3.7412870769
s(g4
I3
tp52
F-3.7303392951900003
s(g16
I0
tp53
F1177.5697354440001
s(g18
I0
tp54
F-3.7596785490000006
s(g18
I3
tp55
F-3.2112777600000002
s(g13
I0
tp56
F1618.098380181
s(g27
I0
tp57
F1781.001
s(g24
I3
tp58
F0
s(g20
I3
tp59
F1051.9777022407154
s(g29
I2
tp60
F1176.2265920687091
s(g42
I0
tp61
F0
s(g2
I1
tp62
F0
s(g10
I3
tp63
F0
s(g22
I1
tp64
F-2250
s(g2
I2
tp65
F0
s(g27
I3
tp66
F2000
s(g42
I3
tp67
F0
s(g16
I1
tp68
F-3.7596785490000006
s(g8
I3
tp69
F-2250
s(g22
I3
tp70
F1308.7443259752738
s(g13
I1
tp71
F1455.2396622409592
s(g42
I1
tp72
F0
s(g20
I0
tp73
F1618.1000000000001
s(g29
I3
tp74
F1455.2900000000002
s(g22
I0
tp75
F-3.8106813429000006
s(g24
I0
tp76
F0
s.