(dp1
(((S'p'
I-3
I0
t(S'f'
I0
I0
t(S'p'
I-2
I2
t(S't'
I1
I2
t(S'p'
I-1
I0
t(S'f'
I1
I0
ttp2
I3
tp3
F0
s(((S'f'
I5
I-1
t(S't'
I5
I1
t(S'p'
I3
I-1
t(S'f'
I4
I-1
t(S'p'
I2
I1
t(S'p'
I1
I-1
ttp4
I2
tp5
F-4.3213074795900015
s(((S'p'
I3
I0
t(S'f'
I4
I0
t(S'p'
I1
I0
t(S'f'
I5
I0
t(S't'
I5
I2
t(S'p'
I2
I2
ttp6
I1
tp7
F-4.3213074795900015
s(((S'p'
I2
I-2
t(S'f'
I4
I-2
t(S't'
I4
I0
t(S'p'
I1
I0
t(S'f'
I3
I-2
t(S'p'
I0
I-2
ttp8
I2
tp9
F-4.2341274168480005
s((S't'
I0
I0
tp10
I0
tp11
F0
s(g6
I0
tp12
F-4.3241409290880011
s(((S'f'
I2
I-2
t(S'f'
I1
I-2
t(S'p'
I-1
I0
t(S'p'
I-2
I-2
t(S'p'
I0
I-2
t(S't'
I2
I0
ttp13
I2
tp14
F-2499.9999997499999
s(((S't'
I3
I2
t(S'p'
I0
I2
t(S'f'
I3
I0
t(S'p'
I1
I0
t(S'f'
I2
I0
t(S'p'
I-1
I0
ttp15
I2
tp16
F-2250
s(((S'f'
I5
I-2
t(S'p'
I3
I-2
t(S't'
I5
I0
t(S'p'
I2
I0
t(S'f'
I4
I-2
t(S'p'
I1
I-2
ttp17
I2
tp18
F-4.3213074795900015
s(((S'p'
I-1
I1
t(S'f'
I2
I-1
t(S'f'
I1
I-1
t(S'p'
I-2
I-1
t(S'p'
I0
I-1
t(S't'
I2
I1
ttp19
I1
tp20
F-2497.5
s(g4
I0
tp21
F-4.3214455773900013
s(g2
I0
tp22
F0
s(((S'f'
I1
I-2
t(S'f'
I0
I-2
t(S'p'
I-1
I-2
t(S'p'
I-3
I-2
t(S'p'
I-2
I0
t(S't'
I1
I0
ttp23
I1
tp24
F1364.4233009999998
s(((S'f'
I2
I-1
t(S't'
I3
I1
t(S'p'
I1
I-1
t(S'f'
I3
I-1
t(S'p'
I-1
I-1
t(S'p'
I0
I1
ttp25
I0
tp26
F-2499.9974999999999
s(g8
I1
tp27
F-3.8838730910787906
s(g10
I1
tp28
F0
s(g6
I3
tp29
F-2475
s(g13
I3
tp30
F1799
s(g4
I1
tp31
F-4.3213084695900008
s(((S'f'
I1
I-1
t(S'f'
I0
I-1
t(S'p'
I-1
I-1
t(S'p'
I-3
I-1
t(S't'
I1
I1
t(S'p'
I-2
I1
ttp32
I2
tp33
F0
s(g15
I3
tp34
F-2475
s(g17
I1
tp35
F-4.3164061607700015
s(g32
I3
tp36
F-225
s(g32
I1
tp37
F-675
s(((S'f'
I-1
I-1
t(S'p'
I-4
I-1
t(S'f'
I0
I-1
t(S't'
I0
I1
t(S'p'
I-2
I-1
t(S'p'
I-3
I1
ttp38
I2
tp39
F0
s(g2
I1
tp40
F0
s(g19
I2
tp41
F1295.6427120420003
s(g25
I1
tp42
F1174.4288421645128
s(g8
I0
tp43
F-3.9367244991600003
s(g10
I2
tp44
F0
s(g6
I2
tp45
F-4.3213074795900015
s(((S'p'
I2
I-1
t(S'p'
I1
I1
t(S't'
I4
I1
t(S'f'
I4
I-1
t(S'f'
I3
I-1
t(S'p'
I0
I-1
ttp46
I2
tp47
F-3.7537835490000004
s(g4
I3
tp48
F-3.8098653147000001
s(g15
I0
tp49
F1308.6297994738138
s(g17
I0
tp50
F-4.3213074795900015
s(g13
I0
tp51
F1616.4793791000811
s(g23
I0
tp52
F1797.2001
s(g19
I3
tp53
F1208.23281
s(g25
I2
tp54
F1172.5160041038155
s(g38
I0
tp55
F1800
s(g10
I3
tp56
F0
s(g46
I1
tp57
F-2475
s(g2
I2
tp58
F-2250
s(g23
I3
tp59
F2000
s(g38
I3
tp60
F0
s(g15
I1
tp61
F-3.7596785490000006
s(g8
I3
tp62
F-2475
s(g46
I3
tp63
F1308.6298006752797
s(g13
I1
tp64
F1455.2899854286993
s(g23
I2
tp65
F1618.0838027100001
s(g38
I1
tp66
F0
s(g17
I3
tp67
F-4.2501733571160001
s(g19
I0
tp68
F1618.1000000000001
s(g25
I3
tp69
F1455.2900000000002
s(g46
I0
tp70
F-3.7657981980000006
s(g32
I0
tp71
F1798.9820099999999
s.