(dp1
(((S'f'
I5
I-1
t(S't'
I5
I1
t(S'p'
I3
I-1
t(S'f'
I4
I-1
t(S'p'
I2
I1
t(S'p'
I1
I-1
ttI2
tp2
F-3.1425039000000003
s(((S'p'
I3
I0
t(S'f'
I4
I0
t(S'p'
I1
I0
t(S'f'
I5
I0
t(S't'
I5
I2
t(S'p'
I2
I2
ttI1
tp3
F-3.1425039000000003
s(((S'p'
I2
I-2
t(S'f'
I4
I-2
t(S't'
I4
I0
t(S'p'
I1
I0
t(S'f'
I3
I-2
t(S'p'
I0
I-2
ttI2
tp4
F-2.4642900000000001
s(((S'f'
I1
I-2
t(S'f'
I0
I-2
t(S'p'
I-1
I-2
t(S'p'
I-3
I-2
t(S'p'
I-2
I0
t(S't'
I1
I0
ttI0
tp5
F1798.8200837999998
s(((S'p'
I3
I0
t(S'f'
I4
I0
t(S'p'
I1
I0
t(S'f'
I5
I0
t(S't'
I5
I2
t(S'p'
I2
I2
ttI0
tp6
F-2.5986699
s(((S'f'
I2
I-2
t(S'f'
I1
I-2
t(S'p'
I-1
I0
t(S'p'
I-2
I-2
t(S'p'
I0
I-2
t(S't'
I2
I0
ttI2
tp7
F-2499.75
s(((S't'
I3
I2
t(S'p'
I0
I2
t(S'f'
I3
I0
t(S'p'
I1
I0
t(S'f'
I2
I0
t(S'p'
I-1
I0
ttI2
tp8
F-2475
s(((S'f'
I5
I-2
t(S'p'
I3
I-2
t(S't'
I5
I0
t(S'p'
I2
I0
t(S'f'
I4
I-2
t(S'p'
I1
I-2
ttI2
tp9
F-2.4642900000000001
s(((S'p'
I-1
I1
t(S'f'
I2
I-1
t(S'f'
I1
I-1
t(S'p'
I-2
I-1
t(S'p'
I0
I-1
t(S't'
I2
I1
ttI1
tp10
F-2499.75
s(((S'f'
I5
I-1
t(S't'
I5
I1
t(S'p'
I3
I-1
t(S'f'
I4
I-1
t(S'p'
I2
I1
t(S'p'
I1
I-1
ttI0
tp11
F-2.5388190000000002
s(((S'f'
I1
I-2
t(S'f'
I0
I-2
t(S'p'
I-1
I-2
t(S'p'
I-3
I-2
t(S'p'
I-2
I0
t(S't'
I1
I0
ttI1
tp12
F1059.7473379975502
s(((S'f'
I2
I-1
t(S't'
I3
I1
t(S'p'
I1
I-1
t(S'f'
I3
I-1
t(S'p'
I-1
I-1
t(S'p'
I0
I1
ttI0
tp13
F-2497.5
s(((S'p'
I2
I-2
t(S'f'
I4
I-2
t(S't'
I4
I0
t(S'p'
I1
I0
t(S'f'
I3
I-2
t(S'p'
I0
I-2
ttI1
tp14
F-2.6574749999999998
s(((S'f'
I1
I-1
t(S'f'
I0
I-1
t(S'p'
I-1
I-1
t(S'p'
I-3
I-1
t(S't'
I1
I1
t(S'p'
I-2
I1
ttI3
tp15
F-225
s(((S'p'
I3
I0
t(S'f'
I4
I0
t(S'p'
I1
I0
t(S'f'
I5
I0
t(S't'
I5
I2
t(S'p'
I2
I2
ttI3
tp16
F-2250
s(((S'f'
I2
I-2
t(S'f'
I1
I-2
t(S'p'
I-1
I0
t(S'p'
I-2
I-2
t(S'p'
I0
I-2
t(S't'
I2
I0
ttI3
tp17
F1799
s(((S'p'
I2
I-1
t(S'p'
I1
I1
t(S't'
I4
I1
t(S'f'
I4
I-1
t(S'f'
I3
I-1
t(S'p'
I0
I-1
ttI3
tp18
F1308.7608688634591
s(((S'f'
I1
I-1
t(S'f'
I0
I-1
t(S'p'
I-1
I-1
t(S'p'
I-3
I-1
t(S't'
I1
I1
t(S'p'
I-2
I1
ttI2
tp19
F1455.2899985447102
s(((S't'
I3
I2
t(S'p'
I0
I2
t(S'f'
I3
I0
t(S'p'
I1
I0
t(S'f'
I2
I0
t(S'p'
I-1
I0
ttI3
tp20
F-2250
s(((S'f'
I5
I-2
t(S'p'
I3
I-2
t(S't'
I5
I0
t(S'p'
I2
I0
t(S'f'
I4
I-2
t(S'p'
I1
I-2
ttI1
tp21
F-2.5978680000000001
s(((S't'
I3
I2
t(S'p'
I0
I2
t(S'f'
I3
I0
t(S'p'
I1
I0
t(S'f'
I2
I0
t(S'p'
I-1
I0
ttI0
tp22
F1295.6424596013512
s(((S'f'
I1
I-2
t(S'f'
I0
I-2
t(S'p'
I-1
I-2
t(S'p'
I-3
I-2
t(S'p'
I-2
I0
t(S't'
I1
I0
ttI2
tp23
F1618.0838190000002
s(((S'p'
I-1
I1
t(S'f'
I2
I-1
t(S'f'
I1
I-1
t(S'p'
I-2
I-1
t(S'p'
I0
I-1
t(S't'
I2
I1
ttI2
tp24
F1308.6298642925522
s(((S'f'
I2
I-1
t(S't'
I3
I1
t(S'p'
I1
I-1
t(S'f'
I3
I-1
t(S'p'
I-1
I-1
t(S'p'
I0
I1
ttI1
tp25
F952.5640598812065
s(((S'p'
I2
I-2
t(S'f'
I4
I-2
t(S't'
I4
I0
t(S'p'
I1
I0
t(S'f'
I3
I-2
t(S'p'
I0
I-2
ttI0
tp26
F-3.1425039000000003
s(((S'f'
I1
I-1
t(S'f'
I0
I-1
t(S'p'
I-1
I-1
t(S'p'
I-3
I-1
t(S't'
I1
I1
t(S'p'
I-2
I1
ttI0
tp27
F-0.90000000000000002
s(((S'p'
I3
I0
t(S'f'
I4
I0
t(S'p'
I1
I0
t(S'f'
I5
I0
t(S't'
I5
I2
t(S'p'
I2
I2
ttI2
tp28
F-3.1425039000000003
s(((S'p'
I2
I-1
t(S'p'
I1
I1
t(S't'
I4
I1
t(S'f'
I4
I-1
t(S'f'
I3
I-1
t(S'p'
I0
I-1
ttI2
tp29
F-3.0835449000000001
s(((S'p'
I2
I-1
t(S'p'
I1
I1
t(S't'
I4
I1
t(S'f'
I4
I-1
t(S'f'
I3
I-1
t(S'p'
I0
I-1
ttI1
tp30
F-2475
s(((S'f'
I-1
I-1
t(S'p'
I-4
I-1
t(S'f'
I0
I-1
t(S't'
I0
I1
t(S'p'
I-2
I-1
t(S'p'
I-3
I1
ttI2
tp31
F-225
s(((S'f'
I5
I-2
t(S'p'
I3
I-2
t(S't'
I5
I0
t(S'p'
I2
I0
t(S'f'
I4
I-2
t(S'p'
I1
I-2
ttI0
tp32
F-2.4642900000000001
s(((S'f'
I2
I-2
t(S'f'
I1
I-2
t(S'p'
I-1
I0
t(S'p'
I-2
I-2
t(S'p'
I0
I-2
t(S't'
I2
I0
ttI0
tp33
F1601.9100000000001
s(((S'p'
I-1
I1
t(S'f'
I2
I-1
t(S'f'
I1
I-1
t(S'p'
I-2
I-1
t(S'p'
I0
I-1
t(S't'
I2
I1
ttI3
tp34
F1056.1186574121512
s(((S'f'
I2
I-1
t(S't'
I3
I1
t(S'p'
I1
I-1
t(S'f'
I3
I-1
t(S'p'
I-1
I-1
t(S'p'
I0
I1
ttI2
tp35
F1176.8773466088769
s(((S'f'
I1
I-1
t(S'f'
I0
I-1
t(S'p'
I-1
I-1
t(S'p'
I-3
I-1
t(S't'
I1
I1
t(S'p'
I-2
I1
ttI1
tp36
F-675
s(((S'f'
I5
I-1
t(S't'
I5
I1
t(S'p'
I3
I-1
t(S'f'
I4
I-1
t(S'p'
I2
I1
t(S'p'
I1
I-1
ttI3
tp37
F-3.1446909000000001
s(((S'p'
I-3
I0
t(S'f'
I0
I0
t(S'p'
I-2
I2
t(S't'
I1
I2
t(S'p'
I-1
I0
t(S'f'
I1
I0
ttI2
tp38
F-2250
s(((S'f'
I1
I-2
t(S'f'
I0
I-2
t(S'p'
I-1
I-2
t(S'p'
I-3
I-2
t(S'p'
I-2
I0
t(S't'
I1
I0
ttI3
tp39
F2000
s(((S't'
I3
I2
t(S'p'
I0
I2
t(S'f'
I3
I0
t(S'p'
I1
I0
t(S'f'
I2
I0
t(S'p'
I-1
I0
ttI1
tp40
F952.62198238094345
s(((S'p'
I2
I-2
t(S'f'
I4
I-2
t(S't'
I4
I0
t(S'p'
I1
I0
t(S'f'
I3
I-2
t(S'p'
I0
I-2
ttI3
tp41
F-2475
s(((S'f'
I5
I-1
t(S't'
I5
I1
t(S'p'
I3
I-1
t(S'f'
I4
I-1
t(S'p'
I2
I1
t(S'p'
I1
I-1
ttI1
tp42
F-3.0689649000000001
s(((S'f'
I2
I-2
t(S'f'
I1
I-2
t(S'p'
I-1
I0
t(S'p'
I-2
I-2
t(S'p'
I0
I-2
t(S't'
I2
I0
ttI1
tp43
F1455.2885260458261
s(((S'f'
I5
I-2
t(S'p'
I3
I-2
t(S't'
I5
I0
t(S'p'
I2
I0
t(S'f'
I4
I-2
t(S'p'
I1
I-2
ttI3
tp44
F-1.8008999999999999
s(((S'p'
I-1
I1
t(S'f'
I2
I-1
t(S'f'
I1
I-1
t(S'p'
I-2
I-1
t(S'p'
I0
I-1
t(S't'
I2
I1
ttI0
tp45
F1618.1000000000001
s(((S'f'
I2
I-1
t(S't'
I3
I1
t(S'p'
I1
I-1
t(S'f'
I3
I-1
t(S'p'
I-1
I-1
t(S'p'
I0
I1
ttI3
tp46
F1455.2900000000002
s(((S'p'
I2
I-1
t(S'p'
I1
I1
t(S't'
I4
I1
t(S'f'
I4
I-1
t(S'f'
I3
I-1
t(S'p'
I0
I-1
ttI0
tp47
F-3.1425939000000001
s.