(dp1
(((S'f'
I1
I-1
t(S't'
I3
I2
t(S'p'
I0
I2
t(S'f'
I3
I0
t(S'p'
I1
I0
t(S'f'
I2
I0
t(S'p'
I-1
I0
ttI2
tp2
F-2499.75
s(((S't'
I1
I0
t(S'f'
I0
I-2
t(S'p'
I-1
I-2
t(S'f'
I1
I-2
t(S'f'
I-1
I-3
t(S'p'
I-2
I0
t(S'p'
I-3
I-2
ttI1
tp3
F-225
s(((S'f'
I0
I0
t(S'f'
I-1
I-1
t(S'p'
I-2
I2
t(S't'
I1
I2
t(S'f'
I1
I0
t(S'p'
I-1
I0
t(S'p'
I-3
I0
ttI1
tp4
F-450
s(((S'f'
I4
I-2
t(S'f'
I2
I-3
t(S'p'
I2
I-2
t(S't'
I4
I0
t(S'p'
I1
I0
t(S'f'
I3
I-2
t(S'p'
I0
I-2
ttI1
tp5
F-3.7597004190000005
s(((S'f'
I2
I-2
t(S'f'
I1
I-2
t(S'f'
I0
I-3
t(S'p'
I-1
I0
t(S'p'
I-2
I-2
t(S'p'
I0
I-2
t(S't'
I2
I0
ttI3
tp6
F1799
s(((S'p'
I-2
I1
t(S'f'
I0
I0
t(S't'
I2
I3
t(S'p'
I-1
I3
t(S'f'
I1
I1
t(S'f'
I2
I1
t(S'p'
I0
I1
ttI0
tp7
F-2250
s(((S'f'
I3
I2
t(S'p'
I0
I2
t(S't'
I4
I4
t(S'p'
I1
I4
t(S'f'
I4
I2
t(S'p'
I2
I2
t(S'f'
I2
I1
ttI0
tp8
F727.27676900000029
s(((S'f'
I2
I-2
t(S'f'
I4
I-1
t(S'p'
I1
I1
t(S't'
I4
I1
t(S'p'
I2
I-1
t(S'f'
I3
I-1
t(S'p'
I0
I-1
ttI2
tp9
F-3.7596785490000006
s(((S'f'
I0
I0
t(S'f'
I-2
I-1
t(S'p'
I-4
I0
t(S'f'
I-1
I0
t(S'p'
I-3
I2
t(S't'
I0
I2
t(S'p'
I-2
I0
ttI0
tp10
F-225
s(((S'f'
I2
I2
t(S'p'
I-1
I2
t(S't'
I3
I4
t(S'p'
I0
I4
t(S'f'
I1
I1
t(S'f'
I3
I2
t(S'p'
I1
I2
ttI3
tp11
F132.83669214046347
s(((S'f'
I3
I1
t(S'f'
I4
I1
t(S't'
I4
I3
t(S'p'
I2
I1
t(S'f'
I2
I0
t(S'p'
I1
I3
t(S'p'
I0
I1
ttI1
tp12
F587.19424223431952
s(((S't'
I3
I3
t(S'p'
I-1
I1
t(S'f'
I3
I1
t(S'p'
I1
I1
t(S'p'
I0
I3
t(S'f'
I2
I1
t(S'f'
I1
I0
ttI3
tp13
F47.694409601218354
s(((S't'
I0
I3
t(S'p'
I-3
I3
t(S'f'
I0
I1
t(S'f'
I-2
I0
t(S'p'
I-4
I1
t(S'f'
I-1
I1
t(S'p'
I-2
I1
ttI3
tp14
F-254.49966982801604
s(((S'f'
I3
I1
t(S'f'
I4
I1
t(S't'
I4
I3
t(S'p'
I2
I1
t(S'f'
I2
I0
t(S'p'
I1
I3
t(S'p'
I0
I1
ttI0
tp15
F-2500
s(((S'f'
I2
I-1
t(S'f'
I1
I-2
t(S't'
I3
I1
t(S'p'
I1
I-1
t(S'f'
I3
I-1
t(S'p'
I-1
I-1
t(S'p'
I0
I1
ttI0
tp16
F-2499.9997499999999
s(((S'p'
I-1
I1
t(S't'
I1
I3
t(S'f'
I0
I1
t(S'f'
I-1
I0
t(S'p'
I-2
I3
t(S'f'
I1
I1
t(S'p'
I-3
I1
ttI3
tp17
F-225
s(((S'p'
I-1
I1
t(S'f'
I2
I-1
t(S'f'
I1
I-1
t(S'f'
I0
I-2
t(S'p'
I-2
I-1
t(S'p'
I0
I-1
t(S't'
I2
I1
ttI0
tp18
F1618.1000000000001
s(((S'f'
I1
I-1
t(S't'
I3
I2
t(S'p'
I0
I2
t(S'f'
I3
I0
t(S'p'
I1
I0
t(S'f'
I2
I0
t(S'p'
I-1
I0
ttI1
tp19
F705.5363001267923
s(((S't'
I2
I4
t(S'f'
I2
I2
t(S'p'
I0
I2
t(S'p'
I-2
I2
t(S'p'
I-1
I4
t(S'f'
I0
I1
t(S'f'
I1
I2
ttI3
tp20
F-9.9980410109898301
s(((S'f'
I-1
I2
t(S'p'
I-3
I4
t(S'p'
I-2
I2
t(S't'
I0
I4
t(S'f'
I0
I2
t(S'f'
I-2
I1
t(S'p'
I-4
I2
ttI1
tp21
F-9.9988847882583016
s(((S'p'
I-2
I1
t(S'f'
I-1
I-2
t(S'f'
I0
I-1
t(S'p'
I-1
I-1
t(S'f'
I1
I-1
t(S't'
I1
I1
t(S'p'
I-3
I-1
ttI3
tp22
F1549.1969999999999
s(((S'p'
I-2
I4
t(S't'
I1
I4
t(S'p'
I-1
I2
t(S'f'
I1
I2
t(S'p'
I-3
I2
t(S'f'
I0
I2
t(S'f'
I-1
I1
ttI1
tp23
F-9.9263048250420489
s(((S'f'
I2
I-2
t(S'f'
I4
I-1
t(S'p'
I1
I1
t(S't'
I4
I1
t(S'p'
I2
I-1
t(S'f'
I3
I-1
t(S'p'
I0
I-1
ttI3
tp24
F1295.6417597402101
s(((S'p'
I-2
I1
t(S'f'
I0
I0
t(S't'
I2
I3
t(S'p'
I-1
I3
t(S'f'
I1
I1
t(S'f'
I2
I1
t(S'p'
I0
I1
ttI1
tp25
F-255.4263663293026
s(((S'f'
I2
I-1
t(S'f'
I1
I-2
t(S't'
I3
I1
t(S'p'
I1
I-1
t(S'f'
I3
I-1
t(S'p'
I-1
I-1
t(S'p'
I0
I1
ttI2
tp26
F952.55583435080109
s(((S'f'
I3
I2
t(S'p'
I0
I2
t(S't'
I4
I4
t(S'p'
I1
I4
t(S'f'
I4
I2
t(S'p'
I2
I2
t(S'f'
I2
I1
ttI1
tp27
F653.5424566141894
s(((S'f'
I2
I-2
t(S'f'
I1
I-2
t(S'f'
I0
I-3
t(S'p'
I-1
I0
t(S'p'
I-2
I-2
t(S'p'
I0
I-2
t(S't'
I2
I0
ttI1
tp28
F-1.7190000000000001
s(((S'f'
I2
I2
t(S'p'
I-1
I2
t(S't'
I3
I4
t(S'p'
I0
I4
t(S'f'
I1
I1
t(S'f'
I3
I2
t(S'p'
I1
I2
ttI0
tp29
F-252.81951868490668
s(((S't'
I2
I4
t(S'f'
I2
I2
t(S'p'
I0
I2
t(S'p'
I-2
I2
t(S'p'
I-1
I4
t(S'f'
I0
I1
t(S'f'
I1
I2
ttI0
tp30
F-681.75
s(((S'f'
I4
I-2
t(S'f'
I2
I-3
t(S'p'
I2
I-2
t(S't'
I4
I0
t(S'p'
I1
I0
t(S'f'
I3
I-2
t(S'p'
I0
I-2
ttI2
tp31
F-3.766637835
s(((S't'
I3
I3
t(S'p'
I-1
I1
t(S'f'
I3
I1
t(S'p'
I1
I1
t(S'p'
I0
I3
t(S'f'
I2
I1
t(S'f'
I1
I0
ttI2
tp32
F727.20317193351514
s(((S't'
I0
I3
t(S'p'
I-3
I3
t(S'f'
I0
I1
t(S'f'
I-2
I0
t(S'p'
I-4
I1
t(S'f'
I-1
I1
t(S'p'
I-2
I1
ttI0
tp33
F-675
s(((S'p'
I-2
I4
t(S't'
I1
I4
t(S'p'
I-1
I2
t(S'f'
I1
I2
t(S'p'
I-3
I2
t(S'f'
I0
I2
t(S'f'
I-1
I1
ttI2
tp34
F-258.98792996111825
s(((S'f'
I0
I0
t(S'f'
I-2
I-1
t(S'p'
I-4
I0
t(S'f'
I-1
I0
t(S'p'
I-3
I2
t(S't'
I0
I2
t(S'p'
I-2
I0
ttI2
tp35
F-675
s(((S't'
I1
I0
t(S'f'
I0
I-2
t(S'p'
I-1
I-2
t(S'f'
I1
I-2
t(S'f'
I-1
I-3
t(S'p'
I-2
I0
t(S'p'
I-3
I-2
ttI0
tp36
F1619.01
s(((S'f'
I2
I-2
t(S'f'
I1
I-2
t(S'f'
I0
I-3
t(S'p'
I-1
I0
t(S'p'
I-2
I-2
t(S'p'
I0
I-2
t(S't'
I2
I0
ttI0
tp37
F1617.9380181000001
s(((S'f'
I2
I-2
t(S'f'
I4
I-1
t(S'p'
I1
I1
t(S't'
I4
I1
t(S'p'
I2
I-1
t(S'f'
I3
I-1
t(S'p'
I0
I-1
ttI1
tp38
F-2250
s(((S'p'
I-1
I1
t(S'f'
I2
I-1
t(S'f'
I1
I-1
t(S'f'
I0
I-2
t(S'p'
I-2
I-1
t(S'p'
I0
I-1
t(S't'
I2
I1
ttI1
tp39
F-2250
s(((S't'
I2
I4
t(S'f'
I2
I2
t(S'p'
I0
I2
t(S'p'
I-2
I2
t(S'p'
I-1
I4
t(S'f'
I0
I1
t(S'f'
I1
I2
ttI2
tp40
F522.10221038861118
s(((S'f'
I1
I-1
t(S't'
I3
I2
t(S'p'
I0
I2
t(S'f'
I3
I0
t(S'p'
I1
I0
t(S'f'
I2
I0
t(S'p'
I-1
I0
ttI0
tp41
F1308.7610000000002
s(((S'p'
I-2
I1
t(S'f'
I-1
I-2
t(S'f'
I0
I-1
t(S'p'
I-1
I-1
t(S'f'
I1
I-1
t(S't'
I1
I1
t(S'p'
I-3
I-1
ttI1
tp42
F-675
s(((S'f'
I0
I0
t(S'f'
I-1
I-1
t(S'p'
I-2
I2
t(S't'
I1
I2
t(S'f'
I1
I0
t(S'p'
I-1
I0
t(S'p'
I-3
I0
ttI2
tp43
F-2475
s(((S'p'
I-1
I1
t(S't'
I1
I3
t(S'f'
I0
I1
t(S'f'
I-1
I0
t(S'p'
I-2
I3
t(S'f'
I1
I1
t(S'p'
I-3
I1
ttI1
tp44
F-9.9835891680873985
s(((S'p'
I-1
I1
t(S't'
I1
I3
t(S'f'
I0
I1
t(S'f'
I-1
I0
t(S'p'
I-2
I3
t(S'f'
I1
I1
t(S'p'
I-3
I1
ttI0
tp45
F-931.5
s(((S'f'
I0
I0
t(S'f'
I-1
I-1
t(S'p'
I-2
I2
t(S't'
I1
I2
t(S'f'
I1
I0
t(S'p'
I-1
I0
t(S'p'
I-3
I0
ttI0
tp46
F-225
s(((S'p'
I-2
I1
t(S'f'
I0
I0
t(S't'
I2
I3
t(S'p'
I-1
I3
t(S'f'
I1
I1
t(S'f'
I2
I1
t(S'p'
I0
I1
ttI2
tp47
F798.60831791921123
s(((S't'
I1
I0
t(S'f'
I0
I-2
t(S'p'
I-1
I-2
t(S'f'
I1
I-2
t(S'f'
I-1
I-3
t(S'p'
I-2
I0
t(S'p'
I-3
I-2
ttI3
tp48
F2000
s(((S'f'
I2
I2
t(S'p'
I-1
I2
t(S't'
I3
I4
t(S'p'
I0
I4
t(S'f'
I1
I1
t(S'f'
I3
I2
t(S'p'
I1
I2
ttI1
tp49
F527.46938999902363
s(((S'f'
I4
I-2
t(S'f'
I2
I-3
t(S'p'
I2
I-2
t(S't'
I4
I0
t(S'p'
I1
I0
t(S'f'
I3
I-2
t(S'p'
I0
I-2
ttI3
tp50
F-2250
s(((S't'
I3
I3
t(S'p'
I-1
I1
t(S'f'
I3
I1
t(S'p'
I1
I1
t(S'p'
I0
I3
t(S'f'
I2
I1
t(S'f'
I1
I0
ttI1
tp51
F-9.9880443784802253
s(((S't'
I0
I3
t(S'p'
I-3
I3
t(S'f'
I0
I1
t(S'f'
I-2
I0
t(S'p'
I-4
I1
t(S'f'
I-1
I1
t(S'p'
I-2
I1
ttI1
tp52
F-9.9909741128841496
s(((S'p'
I-2
I1
t(S'f'
I-1
I-2
t(S'f'
I0
I-1
t(S'p'
I-1
I-1
t(S'f'
I1
I-1
t(S't'
I1
I1
t(S'p'
I-3
I-1
ttI0
tp53
F-0.90000000000000002
s(((S'f'
I-1
I2
t(S'p'
I-3
I4
t(S'p'
I-2
I2
t(S't'
I0
I4
t(S'f'
I0
I2
t(S'f'
I-2
I1
t(S'p'
I-4
I2
ttI3
tp54
F-9.9988835863680698
s(((S'f'
I3
I2
t(S'p'
I0
I2
t(S't'
I4
I4
t(S'p'
I1
I4
t(S'f'
I4
I2
t(S'p'
I2
I2
t(S'f'
I2
I1
ttI2
tp55
F646.91360659281418
s(((S'f'
I2
I-2
t(S'f'
I4
I-1
t(S'p'
I1
I1
t(S't'
I4
I1
t(S'p'
I2
I-1
t(S'f'
I3
I-1
t(S'p'
I0
I-1
ttI0
tp56
F-3.2699737799999999
s(((S'p'
I-1
I1
t(S'f'
I2
I-1
t(S'f'
I1
I-1
t(S'f'
I0
I-2
t(S'p'
I-2
I-1
t(S'p'
I0
I-1
t(S't'
I2
I1
ttI2
tp57
F1303.3885511763533
s(((S'f'
I3
I1
t(S'f'
I4
I1
t(S't'
I4
I3
t(S'p'
I2
I1
t(S'f'
I2
I0
t(S'p'
I1
I3
t(S'p'
I0
I1
ttI3
tp58
F809.19641000000024
s(((S'f'
I-1
I2
t(S'p'
I-3
I4
t(S'p'
I-2
I2
t(S't'
I0
I4
t(S'f'
I0
I2
t(S'f'
I-2
I1
t(S'p'
I-4
I2
ttI2
tp59
F-9.9329364235890711
s(((S'f'
I0
I0
t(S'f'
I-1
I-1
t(S'p'
I-2
I2
t(S't'
I1
I2
t(S'f'
I1
I0
t(S'p'
I-1
I0
t(S'p'
I-3
I0
ttI3
tp60
F-675
s(((S'f'
I-2
I-2
t(S'f'
I-1
I-1
t(S'p'
I-4
I-1
t(S'f'
I0
I-1
t(S't'
I0
I1
t(S'p'
I-2
I-1
t(S'p'
I-3
I1
ttI3
tp61
F-225
s(((S'f'
I0
I0
t(S'f'
I-2
I-1
t(S'p'
I-4
I0
t(S'f'
I-1
I0
t(S'p'
I-3
I2
t(S't'
I0
I2
t(S'p'
I-2
I0
ttI3
tp62
F-675
s(((S'p'
I-2
I1
t(S'f'
I0
I0
t(S't'
I2
I3
t(S'p'
I-1
I3
t(S'f'
I1
I1
t(S'f'
I2
I1
t(S'p'
I0
I1
ttI3
tp63
F-450
s(((S'f'
I1
I-1
t(S't'
I3
I2
t(S'p'
I0
I2
t(S'f'
I3
I0
t(S'p'
I1
I0
t(S'f'
I2
I0
t(S'p'
I-1
I0
ttI3
tp64
F-2499.75
s(((S't'
I1
I0
t(S'f'
I0
I-2
t(S'p'
I-1
I-2
t(S'f'
I1
I-2
t(S'f'
I-1
I-3
t(S'p'
I-2
I0
t(S'p'
I-3
I-2
ttI2
tp65
F1616.473832480181
s(((S't'
I2
I4
t(S'f'
I2
I2
t(S'p'
I0
I2
t(S'p'
I-2
I2
t(S'p'
I-1
I4
t(S'f'
I0
I1
t(S'f'
I1
I2
ttI1
tp66
F-225
s(((S'f'
I4
I-2
t(S'f'
I2
I-3
t(S'p'
I2
I-2
t(S't'
I4
I0
t(S'p'
I1
I0
t(S'f'
I3
I-2
t(S'p'
I0
I-2
ttI0
tp67
F-3.7596785490000006
s(((S't'
I3
I3
t(S'p'
I-1
I1
t(S'f'
I3
I1
t(S'p'
I1
I1
t(S'p'
I0
I3
t(S'f'
I2
I1
t(S'f'
I1
I0
ttI0
tp68
F1176.8849000000002
s(((S'f'
I-2
I-2
t(S'f'
I-1
I-1
t(S'p'
I-4
I-1
t(S'f'
I0
I-1
t(S't'
I0
I1
t(S'p'
I-2
I-1
t(S'p'
I-3
I1
ttI0
tp69
F1999.98
s(((S'f'
I3
I2
t(S'p'
I0
I2
t(S't'
I4
I4
t(S'p'
I1
I4
t(S'f'
I4
I2
t(S'p'
I2
I2
t(S'f'
I2
I1
ttI3
tp70
F587.19326321173753
s(((S'f'
I-1
I2
t(S'p'
I-3
I4
t(S'p'
I-2
I2
t(S't'
I0
I4
t(S'f'
I0
I2
t(S'f'
I-2
I1
t(S'p'
I-4
I2
ttI0
tp71
F-258.96406568169743
s(((S'p'
I-1
I1
t(S'f'
I2
I-1
t(S'f'
I1
I-1
t(S'f'
I0
I-2
t(S'p'
I-2
I-1
t(S'p'
I0
I-1
t(S't'
I2
I1
ttI3
tp72
F1131.9903000000002
s(((S'f'
I2
I2
t(S'p'
I-1
I2
t(S't'
I3
I4
t(S'p'
I0
I4
t(S'f'
I1
I1
t(S'f'
I3
I2
t(S'p'
I1
I2
ttI2
tp73
F653.54908546451497
s(((S'f'
I3
I1
t(S'f'
I4
I1
t(S't'
I4
I3
t(S'p'
I2
I1
t(S'f'
I2
I0
t(S'p'
I1
I3
t(S'p'
I0
I1
ttI2
tp74
F653.54914665075489
s(((S'f'
I2
I-2
t(S'f'
I1
I-2
t(S'f'
I0
I-3
t(S'p'
I-1
I0
t(S'p'
I-2
I-2
t(S'p'
I0
I-2
t(S't'
I2
I0
ttI2
tp75
F-2497.5
s(((S't'
I0
I3
t(S'p'
I-3
I3
t(S'f'
I0
I1
t(S'f'
I-2
I0
t(S'p'
I-4
I1
t(S'f'
I-1
I1
t(S'p'
I-2
I1
ttI2
tp76
F-450
s(((S'p'
I-2
I4
t(S't'
I1
I4
t(S'p'
I-1
I2
t(S'f'
I1
I2
t(S'p'
I-3
I2
t(S'f'
I0
I2
t(S'f'
I-1
I1
ttI0
tp77
F-508.92365210760772
s(((S'f'
I2
I-1
t(S'f'
I1
I-2
t(S't'
I3
I1
t(S'p'
I1
I-1
t(S'f'
I3
I-1
t(S'p'
I-1
I-1
t(S'p'
I0
I1
ttI1
tp78
F1176.8730926237943
s(((S'f'
I2
I-1
t(S'f'
I1
I-2
t(S't'
I3
I1
t(S'p'
I1
I-1
t(S'f'
I3
I-1
t(S'p'
I-1
I-1
t(S'p'
I0
I1
ttI3
tp79
F1455.2900000000002
s(((S'p'
I-1
I1
t(S't'
I1
I3
t(S'f'
I0
I1
t(S'f'
I-1
I0
t(S'p'
I-2
I3
t(S'f'
I1
I1
t(S'p'
I-3
I1
ttI2
tp80
F-450
s(((S'p'
I-2
I4
t(S't'
I1
I4
t(S'p'
I-1
I2
t(S'f'
I1
I2
t(S'p'
I-3
I2
t(S'f'
I0
I2
t(S'f'
I-1
I1
ttI3
tp81
F-9.9329050863349924
s.